(lp1
(lp2
I13
aI12
aI0
aI0
aa(lp3
I11
aI10
aI0
aI0
aa(lp4
I28
aI27
aI0
aI0
aa(lp5
I12
aI11
aI0
aI0
aa(lp6
I11
aI11
aI0
aI2
aa(lp7
I13
aI12
aI0
aI0
aa(lp8
I11
aI10
aI0
aI0
aa(lp9
I17
aI16
aI0
aI0
aa(lp10
I13
aI12
aI0
aI0
aa(lp11
I13
aI12
aI0
aI0
aa(lp12
I7
aI6
aI0
aI0
aa(lp13
I13
aI12
aI0
aI0
aa(lp14
I7
aI6
aI0
aI0
aa(lp15
I8
aI7
aI0
aI0
aa(lp16
I11
aI10
aI0
aI0
aa(lp17
I15
aI14
aI0
aI0
aa(lp18
I11
aI10
aI0
aI0
aa(lp19
I13
aI12
aI0
aI0
aa(lp20
I11
aI10
aI0
aI0
aa(lp21
I13
aI12
aI0
aI0
aa(lp22
I11
aI10
aI0
aI0
aa(lp23
I11
aI12
aI0
aI0
aa(lp24
I11
aI10
aI0
aI0
aa(lp25
I11
aI10
aI0
aI0
aa(lp26
I15
aI14
aI0
aI0
aa(lp27
I13
aI12
aI0
aI0
aa(lp28
I13
aI12
aI0
aI0
aa(lp29
I14
aI13
aI0
aI0
aa(lp30
I9
aI8
aI0
aI0
aa(lp31
I8
aI7
aI0
aI0
aa(lp32
I11
aI10
aI0
aI0
aa(lp33
I9
aI8
aI0
aI0
aa(lp34
I16
aI15
aI0
aI0
aa(lp35
I13
aI12
aI0
aI0
aa(lp36
I11
aI10
aI0
aI0
aa(lp37
I3
aI2
aI0
aI0
aa(lp38
I11
aI10
aI0
aI2
aa(lp39
I19
aI18
aI0
aI0
aa(lp40
I23
aI22
aI0
aI0
aa(lp41
I9
aI8
aI0
aI0
aa(lp42
I22
aI21
aI0
aI0
aa(lp43
I13
aI12
aI0
aI0
aa(lp44
I9
aI8
aI0
aI0
aa(lp45
I13
aI12
aI0
aI0
aa(lp46
I11
aI10
aI0
aI0
aa(lp47
I14
aI13
aI0
aI2
aa(lp48
I22
aI21
aI0
aI0
aa(lp49
I9
aI8
aI0
aI0
aa(lp50
I13
aI12
aI0
aI0
aa(lp51
I13
aI12
aI0
aI0
aa(lp52
I19
aI18
aI0
aI0
aa(lp53
I10
aI10
aI0
aI0
aa(lp54
I11
aI10
aI0
aI2
aa(lp55
I16
aI15
aI0
aI0
aa(lp56
I22
aI21
aI0
aI0
aa(lp57
I7
aI6
aI0
aI0
aa(lp58
I7
aI6
aI0
aI0
aa(lp59
I7
aI6
aI0
aI0
aa(lp60
I5
aI4
aI0
aI0
aa(lp61
I13
aI12
aI0
aI0
aa(lp62
I14
aI13
aI0
aI0
aa(lp63
I16
aI15
aI0
aI0
aa(lp64
I15
aI14
aI0
aI2
aa(lp65
I15
aI14
aI0
aI0
aa(lp66
I9
aI8
aI0
aI0
aa(lp67
I7
aI6
aI0
aI0
aa(lp68
I11
aI10
aI0
aI0
aa(lp69
I17
aI16
aI0
aI0
aa(lp70
I22
aI22
aI0
aI0
aa(lp71
I20
aI20
aI0
aI0
aa(lp72
I9
aI8
aI0
aI0
aa(lp73
I11
aI10
aI0
aI0
aa(lp74
I12
aI11
aI0
aI0
aa(lp75
I11
aI10
aI0
aI0
aa(lp76
I13
aI12
aI0
aI0
aa(lp77
I3
aI2
aI0
aI0
aa(lp78
I11
aI10
aI0
aI0
aa(lp79
I9
aI8
aI0
aI0
aa(lp80
I7
aI6
aI0
aI0
aa(lp81
I10
aI9
aI0
aI0
aa(lp82
I15
aI14
aI0
aI0
aa(lp83
I16
aI17
aI0
aI0
aa(lp84
I14
aI13
aI0
aI0
aa(lp85
I23
aI23
aI0
aI0
aa(lp86
I9
aI8
aI0
aI0
aa(lp87
I11
aI10
aI0
aI2
aa(lp88
I14
aI13
aI0
aI0
aa(lp89
I16
aI15
aI0
aI0
aa(lp90
I8
aI7
aI0
aI0
aa(lp91
I17
aI16
aI0
aI0
aa(lp92
I17
aI16
aI0
aI2
aa(lp93
I9
aI8
aI0
aI0
aa(lp94
I12
aI11
aI0
aI0
aa(lp95
I12
aI11
aI0
aI0
aa.