(lp1
(lp2
I17
aI16
aI0
aI0
aa(lp3
I11
aI10
aI0
aI0
aa(lp4
I15
aI15
aI0
aI0
aa(lp5
I17
aI17
aI0
aI2
aa(lp6
I14
aI13
aI0
aI0
aa(lp7
I17
aI16
aI0
aI0
aa(lp8
I9
aI8
aI0
aI0
aa(lp9
I12
aI11
aI0
aI0
aa(lp10
I3
aI2
aI0
aI0
aa(lp11
I17
aI17
aI0
aI0
aa(lp12
I13
aI12
aI0
aI0
aa(lp13
I11
aI10
aI0
aI2
aa(lp14
I13
aI12
aI0
aI0
aa(lp15
I20
aI19
aI0
aI0
aa(lp16
I13
aI12
aI0
aI0
aa(lp17
I13
aI12
aI0
aI0
aa(lp18
I14
aI13
aI0
aI0
aa(lp19
I13
aI12
aI0
aI0
aa(lp20
I9
aI8
aI0
aI0
aa(lp21
I9
aI8
aI0
aI0
aa(lp22
I13
aI12
aI0
aI0
aa(lp23
I24
aI22
aI0
aI0
aa(lp24
I15
aI14
aI0
aI0
aa(lp25
I17
aI16
aI0
aI0
aa(lp26
I20
aI19
aI0
aI0
aa(lp27
I12
aI11
aI0
aI0
aa(lp28
I5
aI4
aI0
aI0
aa(lp29
I11
aI10
aI0
aI0
aa(lp30
I7
aI6
aI0
aI0
aa(lp31
I11
aI10
aI0
aI0
aa(lp32
I11
aI10
aI0
aI0
aa(lp33
I15
aI14
aI0
aI0
aa(lp34
I7
aI6
aI0
aI0
aa(lp35
I13
aI12
aI0
aI0
aa(lp36
I9
aI8
aI0
aI0
aa(lp37
I10
aI10
aI0
aI0
aa(lp38
I9
aI8
aI0
aI0
aa(lp39
I13
aI12
aI0
aI0
aa(lp40
I19
aI19
aI0
aI0
aa(lp41
I7
aI6
aI0
aI0
aa(lp42
I13
aI12
aI0
aI0
aa(lp43
I17
aI16
aI0
aI0
aa(lp44
I19
aI18
aI0
aI0
aa(lp45
I5
aI4
aI0
aI0
aa(lp46
I21
aI20
aI0
aI0
aa(lp47
I11
aI10
aI0
aI0
aa(lp48
I9
aI8
aI0
aI0
aa(lp49
I11
aI10
aI0
aI0
aa(lp50
I9
aI8
aI0
aI0
aa(lp51
I9
aI8
aI0
aI0
aa(lp52
I7
aI6
aI0
aI0
aa(lp53
I9
aI8
aI0
aI0
aa(lp54
I13
aI12
aI0
aI0
aa(lp55
I12
aI11
aI0
aI0
aa(lp56
I11
aI10
aI0
aI0
aa(lp57
I19
aI18
aI0
aI0
aa(lp58
I11
aI10
aI0
aI0
aa(lp59
I17
aI16
aI0
aI0
aa(lp60
I14
aI13
aI0
aI0
aa(lp61
I9
aI8
aI0
aI0
aa(lp62
I11
aI10
aI0
aI0
aa(lp63
I9
aI8
aI0
aI0
aa(lp64
I9
aI8
aI0
aI0
aa(lp65
I9
aI8
aI0
aI0
aa(lp66
I15
aI14
aI0
aI0
aa(lp67
I14
aI13
aI0
aI0
aa(lp68
I28
aI26
aI0
aI2
aa(lp69
I13
aI12
aI0
aI0
aa(lp70
I7
aI6
aI0
aI0
aa(lp71
I11
aI10
aI0
aI0
aa(lp72
I13
aI12
aI0
aI0
aa(lp73
I20
aI19
aI0
aI0
aa(lp74
I16
aI15
aI0
aI0
aa(lp75
I13
aI12
aI0
aI0
aa(lp76
I11
aI10
aI0
aI0
aa(lp77
I13
aI12
aI0
aI0
aa(lp78
I7
aI6
aI0
aI0
aa(lp79
I30
aI30
aI0
aI2
aa(lp80
I9
aI8
aI0
aI0
aa(lp81
I15
aI14
aI0
aI0
aa(lp82
I17
aI16
aI0
aI0
aa(lp83
I13
aI12
aI0
aI0
aa(lp84
I11
aI10
aI0
aI0
aa(lp85
I18
aI18
aI0
aI0
aa(lp86
I12
aI11
aI0
aI0
aa(lp87
I17
aI16
aI0
aI0
aa(lp88
I11
aI10
aI0
aI0
aa(lp89
I13
aI12
aI0
aI0
aa(lp90
I19
aI18
aI0
aI0
aa(lp91
I15
aI14
aI0
aI0
aa(lp92
I16
aI15
aI0
aI0
aa(lp93
I15
aI14
aI0
aI0
aa(lp94
I14
aI13
aI0
aI0
aa(lp95
I14
aI13
aI0
aI0
aa(lp96
I15
aI14
aI0
aI2
aa(lp97
I12
aI11
aI0
aI0
aa(lp98
I18
aI17
aI0
aI0
aa.