(lp1
(lp2
I11
aI10
aI0
aI0
aa(lp3
I13
aI12
aI0
aI0
aa(lp4
I5
aI4
aI0
aI0
aa(lp5
I18
aI18
aI0
aI0
aa(lp6
I14
aI13
aI0
aI0
aa(lp7
I5
aI4
aI0
aI0
aa(lp8
I13
aI12
aI0
aI0
aa(lp9
I15
aI14
aI0
aI0
aa(lp10
I9
aI8
aI0
aI0
aa(lp11
I16
aI14
aI0
aI0
aa(lp12
I15
aI14
aI0
aI0
aa(lp13
I9
aI8
aI0
aI0
aa(lp14
I17
aI16
aI0
aI0
aa(lp15
I13
aI12
aI0
aI0
aa(lp16
I9
aI8
aI0
aI0
aa(lp17
I18
aI17
aI0
aI0
aa(lp18
I13
aI12
aI0
aI0
aa(lp19
I11
aI10
aI0
aI0
aa(lp20
I11
aI10
aI0
aI0
aa(lp21
I16
aI15
aI0
aI0
aa(lp22
I11
aI10
aI0
aI0
aa(lp23
I11
aI11
aI0
aI0
aa(lp24
I7
aI6
aI0
aI0
aa(lp25
I17
aI16
aI0
aI0
aa(lp26
I11
aI10
aI0
aI0
aa(lp27
I11
aI10
aI0
aI0
aa(lp28
I9
aI8
aI0
aI0
aa(lp29
I12
aI11
aI0
aI0
aa(lp30
I13
aI12
aI0
aI0
aa(lp31
I6
aI5
aI0
aI0
aa(lp32
I9
aI8
aI0
aI0
aa(lp33
I9
aI8
aI0
aI0
aa(lp34
I9
aI8
aI0
aI0
aa(lp35
I16
aI15
aI0
aI0
aa(lp36
I11
aI10
aI0
aI0
aa(lp37
I13
aI12
aI0
aI0
aa(lp38
I11
aI10
aI0
aI0
aa(lp39
I10
aI9
aI0
aI0
aa(lp40
I15
aI14
aI0
aI0
aa(lp41
I13
aI12
aI0
aI0
aa(lp42
I9
aI8
aI0
aI0
aa(lp43
I13
aI12
aI0
aI0
aa(lp44
I12
aI11
aI0
aI0
aa(lp45
I9
aI8
aI0
aI0
aa(lp46
I11
aI10
aI0
aI0
aa(lp47
I13
aI12
aI0
aI0
aa(lp48
I13
aI12
aI0
aI0
aa(lp49
I7
aI6
aI0
aI0
aa(lp50
I16
aI15
aI0
aI0
aa(lp51
I9
aI8
aI0
aI0
aa(lp52
I9
aI8
aI0
aI0
aa(lp53
I13
aI12
aI0
aI0
aa(lp54
I9
aI8
aI0
aI0
aa(lp55
I9
aI8
aI0
aI0
aa(lp56
I9
aI8
aI0
aI0
aa(lp57
I9
aI8
aI0
aI0
aa(lp58
I13
aI13
aI0
aI0
aa(lp59
I13
aI12
aI0
aI0
aa(lp60
I13
aI12
aI0
aI0
aa(lp61
I15
aI14
aI0
aI0
aa(lp62
I13
aI12
aI0
aI0
aa(lp63
I14
aI13
aI0
aI0
aa(lp64
I7
aI6
aI0
aI0
aa(lp65
I12
aI11
aI0
aI0
aa(lp66
I15
aI14
aI0
aI0
aa(lp67
I12
aI11
aI0
aI0
aa(lp68
I11
aI10
aI0
aI0
aa(lp69
I8
aI7
aI0
aI0
aa(lp70
I13
aI12
aI0
aI0
aa(lp71
I15
aI14
aI0
aI0
aa(lp72
I13
aI12
aI0
aI0
aa(lp73
I15
aI14
aI0
aI0
aa(lp74
I13
aI12
aI0
aI0
aa(lp75
I9
aI8
aI0
aI0
aa(lp76
I11
aI10
aI0
aI0
aa(lp77
I23
aI22
aI0
aI0
aa(lp78
I17
aI16
aI0
aI0
aa(lp79
I11
aI10
aI0
aI0
aa(lp80
I9
aI8
aI0
aI0
aa(lp81
I11
aI10
aI0
aI0
aa(lp82
I18
aI18
aI0
aI0
aa(lp83
I13
aI12
aI0
aI0
aa(lp84
I11
aI10
aI0
aI0
aa(lp85
I11
aI10
aI0
aI0
aa(lp86
I11
aI10
aI0
aI0
aa(lp87
I7
aI6
aI0
aI0
aa(lp88
I13
aI12
aI0
aI0
aa(lp89
I9
aI8
aI0
aI0
aa(lp90
I11
aI10
aI0
aI0
aa(lp91
I14
aI13
aI0
aI0
aa(lp92
I28
aI26
aI0
aI0
aa(lp93
I11
aI10
aI0
aI0
aa(lp94
I8
aI7
aI0
aI0
aa(lp95
I7
aI6
aI0
aI0
aa(lp96
I7
aI6
aI0
aI0
aa.