(lp1
(lp2
I13
aI12
aI0
aI0
aa(lp3
I3
aI2
aI0
aI0
aa(lp4
I15
aI14
aI0
aI0
aa(lp5
I13
aI12
aI0
aI0
aa(lp6
I9
aI8
aI0
aI0
aa(lp7
I15
aI14
aI0
aI0
aa(lp8
I7
aI6
aI0
aI0
aa(lp9
I7
aI6
aI0
aI0
aa(lp10
I17
aI18
aI0
aI0
aa(lp11
I21
aI20
aI0
aI0
aa(lp12
I9
aI8
aI0
aI0
aa(lp13
I11
aI10
aI0
aI0
aa(lp14
I11
aI10
aI0
aI0
aa(lp15
I11
aI10
aI0
aI0
aa(lp16
I3
aI2
aI0
aI0
aa(lp17
I15
aI14
aI0
aI0
aa(lp18
I13
aI12
aI0
aI0
aa(lp19
I13
aI12
aI0
aI0
aa(lp20
I13
aI12
aI0
aI0
aa(lp21
I9
aI8
aI0
aI0
aa(lp22
I7
aI6
aI0
aI0
aa(lp23
I9
aI8
aI0
aI0
aa(lp24
I9
aI8
aI0
aI0
aa(lp25
I11
aI10
aI0
aI0
aa(lp26
I7
aI6
aI0
aI0
aa(lp27
I21
aI20
aI0
aI0
aa(lp28
I15
aI14
aI0
aI0
aa(lp29
I5
aI4
aI0
aI0
aa(lp30
I9
aI8
aI0
aI2
aa(lp31
I13
aI12
aI0
aI0
aa(lp32
I13
aI12
aI0
aI0
aa(lp33
I13
aI12
aI0
aI0
aa(lp34
I11
aI10
aI0
aI0
aa(lp35
I7
aI6
aI0
aI0
aa(lp36
I5
aI4
aI0
aI0
aa(lp37
I9
aI8
aI0
aI0
aa(lp38
I9
aI8
aI0
aI0
aa(lp39
I11
aI10
aI0
aI0
aa(lp40
I11
aI10
aI0
aI0
aa(lp41
I9
aI8
aI0
aI0
aa(lp42
I13
aI12
aI0
aI0
aa(lp43
I16
aI17
aI0
aI0
aa(lp44
I7
aI6
aI0
aI0
aa(lp45
I6
aI5
aI0
aI0
aa(lp46
I7
aI6
aI0
aI0
aa(lp47
I5
aI4
aI0
aI0
aa(lp48
I15
aI14
aI0
aI0
aa(lp49
I13
aI12
aI0
aI0
aa(lp50
I11
aI10
aI0
aI0
aa(lp51
I11
aI10
aI0
aI0
aa(lp52
I9
aI8
aI0
aI0
aa(lp53
I3
aI2
aI0
aI0
aa(lp54
I21
aI20
aI0
aI2
aa(lp55
I17
aI16
aI0
aI0
aa(lp56
I7
aI6
aI0
aI0
aa(lp57
I5
aI4
aI0
aI0
aa(lp58
I13
aI12
aI0
aI0
aa(lp59
I11
aI10
aI0
aI0
aa(lp60
I14
aI13
aI0
aI0
aa(lp61
I7
aI6
aI0
aI0
aa(lp62
I11
aI10
aI0
aI0
aa(lp63
I16
aI15
aI0
aI0
aa(lp64
I15
aI14
aI0
aI0
aa(lp65
I7
aI6
aI0
aI0
aa(lp66
I8
aI8
aI0
aI0
aa(lp67
I3
aI2
aI0
aI0
aa(lp68
I3
aI2
aI0
aI0
aa(lp69
I7
aI6
aI0
aI0
aa(lp70
I7
aI6
aI0
aI0
aa(lp71
I11
aI10
aI0
aI0
aa(lp72
I15
aI14
aI0
aI0
aa(lp73
I9
aI8
aI0
aI0
aa(lp74
I7
aI6
aI0
aI0
aa(lp75
I7
aI6
aI0
aI0
aa(lp76
I9
aI8
aI0
aI0
aa(lp77
I5
aI4
aI0
aI0
aa(lp78
I7
aI6
aI0
aI0
aa(lp79
I9
aI8
aI0
aI0
aa(lp80
I6
aI6
aI0
aI0
aa(lp81
I11
aI10
aI0
aI0
aa(lp82
I15
aI14
aI0
aI0
aa(lp83
I7
aI6
aI0
aI0
aa(lp84
I7
aI6
aI0
aI0
aa(lp85
I11
aI10
aI0
aI0
aa(lp86
I11
aI10
aI0
aI0
aa(lp87
I12
aI11
aI0
aI0
aa.