(lp1
(lp2
I19
aI18
aI0
aI0
aa(lp3
I17
aI16
aI0
aI0
aa(lp4
I13
aI12
aI0
aI0
aa(lp5
I7
aI6
aI0
aI0
aa(lp6
I17
aI16
aI0
aI0
aa(lp7
I17
aI16
aI0
aI0
aa(lp8
I19
aI18
aI0
aI0
aa(lp9
I15
aI14
aI0
aI0
aa(lp10
I14
aI14
aI0
aI0
aa(lp11
I13
aI12
aI0
aI0
aa(lp12
I19
aI18
aI0
aI2
aa(lp13
I9
aI8
aI0
aI0
aa(lp14
I19
aI18
aI0
aI0
aa(lp15
I17
aI16
aI0
aI0
aa(lp16
I13
aI12
aI0
aI0
aa(lp17
I19
aI18
aI0
aI0
aa(lp18
I13
aI12
aI0
aI0
aa(lp19
I17
aI16
aI0
aI0
aa(lp20
I17
aI16
aI0
aI0
aa(lp21
I19
aI18
aI0
aI0
aa(lp22
I9
aI8
aI0
aI0
aa(lp23
I13
aI12
aI0
aI0
aa(lp24
I17
aI16
aI0
aI0
aa(lp25
I11
aI10
aI0
aI0
aa(lp26
I15
aI14
aI0
aI0
aa(lp27
I12
aI12
aI0
aI0
aa(lp28
I7
aI6
aI0
aI0
aa(lp29
I9
aI8
aI0
aI0
aa(lp30
I11
aI10
aI0
aI0
aa(lp31
I12
aI11
aI0
aI0
aa(lp32
I15
aI16
aI0
aI0
aa(lp33
I21
aI20
aI0
aI0
aa(lp34
I17
aI16
aI0
aI0
aa(lp35
I19
aI18
aI0
aI0
aa(lp36
I5
aI4
aI0
aI0
aa(lp37
I11
aI10
aI0
aI0
aa(lp38
I15
aI14
aI0
aI2
aa(lp39
I15
aI14
aI0
aI0
aa(lp40
I18
aI17
aI0
aI0
aa(lp41
I17
aI16
aI0
aI0
aa(lp42
I11
aI10
aI0
aI0
aa(lp43
I17
aI16
aI0
aI0
aa(lp44
I15
aI14
aI0
aI0
aa(lp45
I15
aI14
aI0
aI0
aa(lp46
I13
aI12
aI0
aI0
aa(lp47
I15
aI14
aI0
aI0
aa(lp48
I11
aI10
aI0
aI0
aa(lp49
I13
aI12
aI0
aI0
aa(lp50
I7
aI6
aI0
aI0
aa(lp51
I11
aI10
aI0
aI0
aa(lp52
I19
aI18
aI0
aI0
aa(lp53
I13
aI12
aI0
aI0
aa(lp54
I15
aI14
aI0
aI0
aa(lp55
I15
aI14
aI0
aI0
aa(lp56
I14
aI13
aI0
aI0
aa(lp57
I19
aI18
aI0
aI0
aa(lp58
I11
aI10
aI0
aI2
aa(lp59
I14
aI13
aI0
aI0
aa(lp60
I12
aI11
aI0
aI0
aa(lp61
I11
aI10
aI0
aI0
aa(lp62
I13
aI12
aI0
aI0
aa(lp63
I16
aI15
aI0
aI0
aa(lp64
I15
aI14
aI0
aI0
aa(lp65
I17
aI16
aI0
aI0
aa(lp66
I11
aI10
aI0
aI0
aa(lp67
I15
aI14
aI0
aI0
aa(lp68
I13
aI12
aI0
aI0
aa(lp69
I15
aI14
aI0
aI0
aa(lp70
I14
aI13
aI0
aI0
aa(lp71
I15
aI14
aI0
aI0
aa(lp72
I13
aI12
aI0
aI0
aa(lp73
I15
aI14
aI0
aI0
aa(lp74
I11
aI10
aI0
aI0
aa(lp75
I13
aI12
aI0
aI0
aa(lp76
I7
aI6
aI0
aI0
aa(lp77
I7
aI6
aI0
aI0
aa(lp78
I13
aI12
aI0
aI0
aa(lp79
I17
aI16
aI0
aI0
aa(lp80
I18
aI18
aI0
aI0
aa(lp81
I3
aI2
aI0
aI0
aa(lp82
I15
aI14
aI0
aI0
aa(lp83
I15
aI14
aI0
aI0
aa(lp84
I13
aI12
aI0
aI0
aa(lp85
I7
aI6
aI0
aI0
aa(lp86
I9
aI8
aI0
aI0
aa(lp87
I13
aI12
aI0
aI0
aa(lp88
I13
aI12
aI0
aI0
aa(lp89
I15
aI14
aI0
aI0
aa(lp90
I13
aI12
aI0
aI0
aa(lp91
I13
aI12
aI0
aI0
aa(lp92
I13
aI12
aI0
aI0
aa(lp93
I15
aI14
aI0
aI0
aa(lp94
I7
aI6
aI0
aI0
aa(lp95
I18
aI18
aI0
aI0
aa.