(lp1
(lp2
I17
aI16
aI0
aI0
aa(lp3
I19
aI18
aI0
aI2
aa(lp4
I15
aI14
aI0
aI0
aa(lp5
I17
aI16
aI0
aI0
aa(lp6
I15
aI14
aI0
aI0
aa(lp7
I15
aI14
aI0
aI0
aa(lp8
I15
aI14
aI0
aI0
aa(lp9
I13
aI12
aI0
aI0
aa(lp10
I15
aI14
aI0
aI0
aa(lp11
I13
aI12
aI0
aI0
aa(lp12
I19
aI18
aI0
aI0
aa(lp13
I7
aI6
aI0
aI0
aa(lp14
I17
aI16
aI0
aI0
aa(lp15
I9
aI8
aI0
aI0
aa(lp16
I18
aI17
aI0
aI0
aa(lp17
I16
aI15
aI0
aI0
aa(lp18
I11
aI10
aI0
aI0
aa(lp19
I3
aI2
aI0
aI0
aa(lp20
I13
aI12
aI0
aI0
aa(lp21
I17
aI16
aI0
aI0
aa(lp22
I14
aI14
aI0
aI0
aa(lp23
I18
aI17
aI0
aI0
aa(lp24
I13
aI12
aI0
aI0
aa(lp25
I18
aI18
aI0
aI4
aa(lp26
I16
aI16
aI0
aI2
aa(lp27
I17
aI16
aI0
aI0
aa(lp28
I17
aI16
aI0
aI0
aa(lp29
I15
aI14
aI0
aI0
aa(lp30
I3
aI2
aI0
aI0
aa(lp31
I17
aI16
aI0
aI0
aa(lp32
I17
aI17
aI0
aI0
aa(lp33
I17
aI17
aI0
aI0
aa(lp34
I20
aI20
aI0
aI0
aa(lp35
I13
aI12
aI0
aI0
aa(lp36
I14
aI12
aI0
aI0
aa(lp37
I14
aI13
aI0
aI2
aa(lp38
I18
aI18
aI0
aI0
aa(lp39
I14
aI14
aI0
aI0
aa(lp40
I5
aI4
aI0
aI0
aa(lp41
I13
aI12
aI0
aI0
aa(lp42
I13
aI12
aI0
aI0
aa(lp43
I15
aI14
aI0
aI0
aa(lp44
I13
aI12
aI0
aI2
aa(lp45
I15
aI14
aI0
aI2
aa(lp46
I5
aI4
aI0
aI0
aa(lp47
I13
aI12
aI0
aI0
aa(lp48
I11
aI10
aI0
aI0
aa(lp49
I16
aI17
aI0
aI0
aa(lp50
I24
aI23
aI0
aI0
aa(lp51
I22
aI21
aI0
aI2
aa(lp52
I18
aI17
aI0
aI0
aa(lp53
I6
aI5
aI0
aI0
aa(lp54
I11
aI10
aI0
aI0
aa(lp55
I11
aI10
aI0
aI0
aa(lp56
I18
aI19
aI0
aI0
aa(lp57
I15
aI14
aI0
aI0
aa(lp58
I13
aI12
aI0
aI0
aa(lp59
I11
aI10
aI0
aI0
aa(lp60
I16
aI16
aI0
aI0
aa(lp61
I13
aI12
aI0
aI0
aa(lp62
I13
aI12
aI0
aI0
aa(lp63
I16
aI15
aI0
aI0
aa(lp64
I19
aI19
aI0
aI2
aa(lp65
I17
aI16
aI0
aI0
aa(lp66
I15
aI14
aI0
aI0
aa(lp67
I13
aI12
aI0
aI0
aa(lp68
I18
aI18
aI0
aI0
aa(lp69
I17
aI16
aI0
aI0
aa(lp70
I19
aI18
aI0
aI0
aa(lp71
I19
aI18
aI0
aI0
aa(lp72
I17
aI18
aI0
aI0
aa(lp73
I10
aI9
aI0
aI0
aa(lp74
I16
aI15
aI0
aI0
aa(lp75
I20
aI19
aI0
aI0
aa(lp76
I11
aI10
aI0
aI0
aa(lp77
I9
aI8
aI0
aI0
aa(lp78
I11
aI10
aI0
aI0
aa(lp79
I14
aI13
aI0
aI0
aa(lp80
I11
aI10
aI0
aI0
aa(lp81
I15
aI14
aI0
aI2
aa(lp82
I16
aI15
aI0
aI2
aa(lp83
I19
aI18
aI0
aI2
aa(lp84
I13
aI12
aI0
aI0
aa(lp85
I11
aI10
aI0
aI0
aa(lp86
I16
aI16
aI0
aI0
aa(lp87
I18
aI17
aI0
aI0
aa(lp88
I6
aI6
aI0
aI0
aa(lp89
I19
aI19
aI0
aI2
aa(lp90
I18
aI17
aI0
aI0
aa(lp91
I15
aI14
aI0
aI2
aa(lp92
I19
aI18
aI0
aI0
aa(lp93
I11
aI10
aI0
aI0
aa(lp94
I9
aI8
aI0
aI0
aa(lp95
I9
aI8
aI0
aI0
aa(lp96
I13
aI12
aI0
aI0
aa(lp97
I11
aI10
aI0
aI2
aa(lp98
I20
aI20
aI0
aI0
aa(lp99
I15
aI14
aI0
aI0
aa.