(lp1
(lp2
I11
aI10
aI0
aI0
aa(lp3
I11
aI10
aI0
aI0
aa(lp4
I5
aI4
aI0
aI0
aa(lp5
I17
aI16
aI0
aI0
aa(lp6
I31
aI28
aI0
aI0
aa(lp7
I13
aI12
aI0
aI0
aa(lp8
I9
aI8
aI0
aI0
aa(lp9
I11
aI10
aI0
aI0
aa(lp10
I3
aI2
aI0
aI0
aa(lp11
I16
aI15
aI0
aI0
aa(lp12
I14
aI13
aI0
aI0
aa(lp13
I15
aI14
aI0
aI0
aa(lp14
I17
aI16
aI0
aI0
aa(lp15
I20
aI19
aI0
aI0
aa(lp16
I15
aI14
aI0
aI0
aa(lp17
I29
aI28
aI0
aI0
aa(lp18
I15
aI14
aI0
aI0
aa(lp19
I13
aI12
aI0
aI0
aa(lp20
I13
aI12
aI0
aI0
aa(lp21
I20
aI19
aI0
aI0
aa(lp22
I3
aI2
aI0
aI0
aa(lp23
I13
aI12
aI0
aI0
aa(lp24
I13
aI12
aI0
aI0
aa(lp25
I13
aI12
aI0
aI0
aa(lp26
I17
aI16
aI0
aI0
aa(lp27
I11
aI10
aI0
aI0
aa(lp28
I17
aI16
aI0
aI0
aa(lp29
I17
aI16
aI0
aI0
aa(lp30
I13
aI13
aI0
aI0
aa(lp31
I13
aI12
aI0
aI0
aa(lp32
I15
aI14
aI0
aI0
aa(lp33
I11
aI10
aI0
aI0
aa(lp34
I17
aI16
aI0
aI0
aa(lp35
I11
aI10
aI0
aI0
aa(lp36
I11
aI10
aI0
aI0
aa(lp37
I15
aI14
aI0
aI0
aa(lp38
I17
aI16
aI0
aI0
aa(lp39
I9
aI8
aI0
aI0
aa(lp40
I16
aI15
aI0
aI0
aa(lp41
I15
aI14
aI0
aI0
aa(lp42
I5
aI4
aI0
aI0
aa(lp43
I5
aI4
aI0
aI0
aa(lp44
I3
aI1
aI0
aI0
aa(lp45
I15
aI14
aI0
aI0
aa(lp46
I18
aI17
aI0
aI0
aa(lp47
I19
aI18
aI0
aI0
aa(lp48
I19
aI18
aI0
aI0
aa(lp49
I15
aI14
aI0
aI0
aa(lp50
I30
aI28
aI0
aI0
aa(lp51
I22
aI21
aI0
aI0
aa(lp52
I21
aI20
aI0
aI0
aa(lp53
I16
aI15
aI0
aI0
aa(lp54
I15
aI14
aI0
aI0
aa(lp55
I22
aI21
aI0
aI0
aa(lp56
I5
aI4
aI0
aI0
aa(lp57
I15
aI14
aI0
aI0
aa(lp58
I15
aI14
aI0
aI0
aa(lp59
I13
aI12
aI0
aI0
aa(lp60
I14
aI13
aI0
aI0
aa(lp61
I17
aI16
aI0
aI0
aa(lp62
I21
aI20
aI0
aI0
aa(lp63
I9
aI8
aI0
aI0
aa(lp64
I10
aI9
aI0
aI0
aa(lp65
I7
aI7
aI0
aI0
aa(lp66
I17
aI16
aI0
aI0
aa(lp67
I20
aI21
aI0
aI0
aa(lp68
I3
aI2
aI0
aI0
aa(lp69
I20
aI20
aI0
aI0
aa(lp70
I9
aI8
aI0
aI0
aa(lp71
I13
aI12
aI0
aI0
aa(lp72
I15
aI14
aI0
aI0
aa(lp73
I21
aI20
aI0
aI0
aa(lp74
I17
aI16
aI0
aI0
aa(lp75
I16
aI15
aI0
aI0
aa(lp76
I19
aI18
aI0
aI0
aa(lp77
I13
aI12
aI0
aI0
aa(lp78
I7
aI6
aI0
aI0
aa(lp79
I27
aI28
aI0
aI0
aa(lp80
I15
aI14
aI0
aI0
aa(lp81
I17
aI16
aI0
aI0
aa(lp82
I13
aI12
aI0
aI0
aa(lp83
I6
aI5
aI0
aI0
aa(lp84
I11
aI10
aI0
aI0
aa(lp85
I17
aI16
aI0
aI0
aa(lp86
I12
aI12
aI0
aI0
aa(lp87
I9
aI8
aI0
aI0
aa(lp88
I22
aI21
aI0
aI0
aa(lp89
I15
aI14
aI0
aI0
aa(lp90
I13
aI12
aI0
aI0
aa.