(lp1
(lp2
I13
aI12
aI0
aI0
aa(lp3
I11
aI10
aI0
aI2
aa(lp4
I7
aI6
aI0
aI0
aa(lp5
I21
aI21
aI0
aI2
aa(lp6
I9
aI8
aI0
aI0
aa(lp7
I9
aI8
aI0
aI2
aa(lp8
I11
aI11
aI0
aI0
aa(lp9
I7
aI6
aI0
aI0
aa(lp10
I13
aI12
aI0
aI0
aa(lp11
I18
aI18
aI0
aI0
aa(lp12
I9
aI8
aI0
aI0
aa(lp13
I17
aI16
aI0
aI0
aa(lp14
I13
aI12
aI0
aI0
aa(lp15
I11
aI10
aI0
aI0
aa(lp16
I16
aI15
aI0
aI0
aa(lp17
I13
aI12
aI0
aI2
aa(lp18
I11
aI10
aI0
aI0
aa(lp19
I13
aI12
aI0
aI0
aa(lp20
I15
aI14
aI0
aI4
aa(lp21
I13
aI12
aI0
aI0
aa(lp22
I9
aI8
aI0
aI0
aa(lp23
I11
aI10
aI0
aI0
aa(lp24
I7
aI6
aI0
aI0
aa(lp25
I9
aI8
aI0
aI0
aa(lp26
I14
aI13
aI0
aI0
aa(lp27
I5
aI4
aI0
aI0
aa(lp28
I3
aI2
aI0
aI0
aa(lp29
I11
aI10
aI0
aI0
aa(lp30
I17
aI16
aI0
aI0
aa(lp31
I11
aI10
aI0
aI0
aa(lp32
I11
aI10
aI0
aI0
aa(lp33
I13
aI12
aI0
aI2
aa(lp34
I11
aI10
aI0
aI0
aa(lp35
I11
aI10
aI0
aI0
aa(lp36
I13
aI12
aI0
aI0
aa(lp37
I13
aI12
aI0
aI0
aa(lp38
I9
aI8
aI0
aI0
aa(lp39
I13
aI12
aI0
aI0
aa(lp40
I11
aI10
aI0
aI0
aa(lp41
I9
aI8
aI0
aI0
aa(lp42
I13
aI12
aI0
aI2
aa(lp43
I11
aI10
aI0
aI0
aa(lp44
I7
aI6
aI0
aI0
aa(lp45
I7
aI6
aI0
aI0
aa(lp46
I11
aI10
aI0
aI0
aa(lp47
I13
aI12
aI0
aI0
aa(lp48
I9
aI8
aI0
aI0
aa(lp49
I11
aI10
aI0
aI0
aa(lp50
I15
aI14
aI0
aI0
aa(lp51
I16
aI15
aI0
aI0
aa(lp52
I11
aI10
aI0
aI0
aa(lp53
I19
aI21
aI0
aI0
aa(lp54
I5
aI4
aI0
aI0
aa(lp55
I10
aI9
aI0
aI0
aa(lp56
I24
aI23
aI0
aI4
aa(lp57
I15
aI14
aI0
aI2
aa(lp58
I12
aI11
aI0
aI2
aa(lp59
I12
aI13
aI0
aI0
aa(lp60
I13
aI12
aI0
aI0
aa(lp61
I3
aI2
aI0
aI0
aa(lp62
I3
aI2
aI0
aI0
aa(lp63
I20
aI19
aI0
aI0
aa(lp64
I7
aI6
aI0
aI0
aa(lp65
I13
aI12
aI0
aI0
aa(lp66
I11
aI10
aI0
aI2
aa(lp67
I11
aI10
aI0
aI0
aa(lp68
I13
aI12
aI0
aI0
aa(lp69
I16
aI15
aI0
aI0
aa(lp70
I9
aI8
aI0
aI0
aa(lp71
I9
aI8
aI0
aI0
aa(lp72
I11
aI10
aI0
aI0
aa(lp73
I13
aI12
aI0
aI0
aa(lp74
I17
aI16
aI0
aI0
aa(lp75
I13
aI12
aI0
aI0
aa(lp76
I3
aI2
aI0
aI0
aa(lp77
I22
aI23
aI0
aI0
aa(lp78
I13
aI12
aI0
aI0
aa(lp79
I13
aI12
aI0
aI0
aa(lp80
I13
aI12
aI0
aI0
aa(lp81
I11
aI10
aI0
aI0
aa(lp82
I11
aI10
aI0
aI0
aa(lp83
I11
aI10
aI0
aI0
aa(lp84
I13
aI12
aI0
aI0
aa(lp85
I7
aI6
aI0
aI0
aa(lp86
I3
aI2
aI0
aI0
aa(lp87
I9
aI8
aI0
aI0
aa(lp88
I3
aI2
aI0
aI0
aa(lp89
I9
aI8
aI0
aI2
aa(lp90
I13
aI12
aI0
aI0
aa(lp91
I13
aI12
aI0
aI0
aa.