(lp1
(lp2
I11
aI10
aI0
aI0
aa(lp3
I5
aI4
aI0
aI0
aa(lp4
I11
aI10
aI0
aI0
aa(lp5
I7
aI6
aI0
aI0
aa(lp6
I11
aI10
aI0
aI0
aa(lp7
I9
aI8
aI0
aI0
aa(lp8
I16
aI15
aI0
aI0
aa(lp9
I9
aI8
aI0
aI0
aa(lp10
I11
aI10
aI0
aI0
aa(lp11
I8
aI7
aI0
aI0
aa(lp12
I9
aI8
aI0
aI0
aa(lp13
I17
aI16
aI0
aI0
aa(lp14
I9
aI8
aI0
aI0
aa(lp15
I11
aI12
aI0
aI0
aa(lp16
I11
aI10
aI0
aI0
aa(lp17
I7
aI6
aI0
aI0
aa(lp18
I7
aI6
aI0
aI0
aa(lp19
I11
aI10
aI0
aI0
aa(lp20
I9
aI8
aI0
aI0
aa(lp21
I11
aI10
aI0
aI0
aa(lp22
I13
aI12
aI0
aI0
aa(lp23
I5
aI4
aI0
aI0
aa(lp24
I7
aI6
aI0
aI0
aa(lp25
I11
aI10
aI0
aI0
aa(lp26
I9
aI8
aI0
aI0
aa(lp27
I9
aI8
aI0
aI0
aa(lp28
I3
aI2
aI0
aI0
aa(lp29
I13
aI12
aI0
aI0
aa(lp30
I11
aI10
aI0
aI0
aa(lp31
I7
aI6
aI0
aI0
aa(lp32
I3
aI2
aI0
aI0
aa(lp33
I15
aI14
aI0
aI0
aa(lp34
I11
aI10
aI0
aI0
aa(lp35
I15
aI14
aI0
aI0
aa(lp36
I9
aI8
aI0
aI0
aa(lp37
I13
aI12
aI0
aI0
aa(lp38
I15
aI14
aI0
aI0
aa(lp39
I7
aI6
aI0
aI0
aa(lp40
I7
aI6
aI0
aI0
aa(lp41
I9
aI8
aI0
aI0
aa(lp42
I9
aI8
aI0
aI0
aa(lp43
I10
aI9
aI0
aI2
aa(lp44
I9
aI8
aI0
aI0
aa(lp45
I9
aI8
aI0
aI0
aa(lp46
I11
aI10
aI0
aI0
aa(lp47
I11
aI10
aI0
aI0
aa(lp48
I11
aI10
aI0
aI0
aa(lp49
I9
aI8
aI0
aI0
aa(lp50
I13
aI12
aI0
aI2
aa(lp51
I13
aI12
aI0
aI0
aa(lp52
I10
aI9
aI0
aI0
aa(lp53
I14
aI13
aI0
aI0
aa(lp54
I15
aI14
aI0
aI0
aa(lp55
I8
aI9
aI0
aI0
aa(lp56
I3
aI2
aI0
aI0
aa(lp57
I11
aI10
aI0
aI0
aa(lp58
I11
aI10
aI0
aI0
aa(lp59
I7
aI6
aI0
aI0
aa(lp60
I11
aI10
aI0
aI0
aa(lp61
I7
aI6
aI0
aI0
aa(lp62
I9
aI9
aI0
aI0
aa(lp63
I14
aI13
aI0
aI0
aa(lp64
I7
aI6
aI0
aI0
aa(lp65
I11
aI10
aI0
aI0
aa(lp66
I11
aI10
aI0
aI0
aa(lp67
I9
aI8
aI0
aI0
aa(lp68
I9
aI8
aI0
aI0
aa(lp69
I7
aI6
aI0
aI0
aa(lp70
I7
aI6
aI0
aI0
aa(lp71
I7
aI6
aI0
aI0
aa(lp72
I15
aI14
aI0
aI0
aa(lp73
I11
aI10
aI0
aI0
aa(lp74
I11
aI10
aI0
aI0
aa(lp75
I15
aI14
aI0
aI2
aa(lp76
I15
aI14
aI0
aI2
aa(lp77
I15
aI14
aI0
aI2
aa(lp78
I13
aI12
aI0
aI0
aa(lp79
I9
aI8
aI0
aI0
aa(lp80
I9
aI8
aI0
aI0
aa(lp81
I11
aI10
aI0
aI0
aa(lp82
I9
aI8
aI0
aI0
aa(lp83
I14
aI14
aI0
aI0
aa(lp84
I11
aI10
aI0
aI2
aa(lp85
I11
aI10
aI0
aI0
aa(lp86
I11
aI10
aI0
aI0
aa(lp87
I13
aI12
aI0
aI0
aa(lp88
I11
aI10
aI0
aI0
aa(lp89
I11
aI10
aI0
aI0
aa(lp90
I11
aI10
aI0
aI0
aa(lp91
I9
aI8
aI0
aI0
aa(lp92
I9
aI8
aI0
aI0
aa(lp93
I13
aI12
aI0
aI2
aa(lp94
I9
aI8
aI0
aI0
aa(lp95
I9
aI8
aI0
aI0
aa.