(lp1
(lp2
I11
aI10
aI0
aI0
aa(lp3
I11
aI10
aI0
aI0
aa(lp4
I20
aI20
aI0
aI0
aa(lp5
I20
aI20
aI0
aI0
aa(lp6
I15
aI14
aI0
aI0
aa(lp7
I13
aI12
aI0
aI0
aa(lp8
I17
aI16
aI0
aI0
aa(lp9
I9
aI8
aI0
aI0
aa(lp10
I19
aI18
aI0
aI0
aa(lp11
I7
aI6
aI0
aI0
aa(lp12
I9
aI8
aI0
aI0
aa(lp13
I9
aI8
aI0
aI0
aa(lp14
I17
aI16
aI0
aI0
aa(lp15
I11
aI10
aI0
aI0
aa(lp16
I11
aI10
aI0
aI0
aa(lp17
I3
aI2
aI0
aI0
aa(lp18
I13
aI12
aI0
aI0
aa(lp19
I17
aI16
aI0
aI0
aa(lp20
I17
aI16
aI0
aI0
aa(lp21
I19
aI20
aI0
aI0
aa(lp22
I19
aI18
aI0
aI0
aa(lp23
I13
aI12
aI0
aI0
aa(lp24
I10
aI9
aI0
aI0
aa(lp25
I9
aI8
aI0
aI0
aa(lp26
I12
aI12
aI0
aI0
aa(lp27
I12
aI11
aI0
aI0
aa(lp28
I21
aI20
aI0
aI0
aa(lp29
I21
aI20
aI0
aI0
aa(lp30
I11
aI10
aI0
aI0
aa(lp31
I15
aI14
aI0
aI0
aa(lp32
I21
aI20
aI0
aI0
aa(lp33
I15
aI14
aI0
aI0
aa(lp34
I19
aI18
aI0
aI0
aa(lp35
I23
aI22
aI0
aI0
aa(lp36
I21
aI20
aI0
aI0
aa(lp37
I15
aI14
aI0
aI0
aa(lp38
I7
aI6
aI0
aI0
aa(lp39
I11
aI10
aI0
aI0
aa(lp40
I13
aI12
aI0
aI0
aa(lp41
I12
aI12
aI0
aI0
aa(lp42
I9
aI8
aI0
aI0
aa(lp43
I13
aI12
aI0
aI0
aa(lp44
I24
aI25
aI0
aI0
aa(lp45
I19
aI18
aI0
aI0
aa(lp46
I15
aI14
aI0
aI0
aa(lp47
I11
aI10
aI0
aI0
aa(lp48
I15
aI14
aI0
aI0
aa(lp49
I5
aI4
aI0
aI0
aa(lp50
I19
aI18
aI0
aI2
aa(lp51
I7
aI6
aI0
aI0
aa(lp52
I17
aI16
aI0
aI0
aa(lp53
I14
aI14
aI0
aI0
aa(lp54
I9
aI8
aI0
aI0
aa(lp55
I9
aI8
aI0
aI0
aa(lp56
I26
aI25
aI0
aI0
aa(lp57
I24
aI24
aI0
aI0
aa(lp58
I23
aI22
aI0
aI4
aa(lp59
I19
aI21
aI0
aI0
aa(lp60
I19
aI18
aI0
aI0
aa(lp61
I24
aI23
aI0
aI0
aa(lp62
I7
aI6
aI0
aI0
aa(lp63
I11
aI10
aI0
aI0
aa(lp64
I17
aI16
aI0
aI0
aa(lp65
I19
aI18
aI0
aI0
aa(lp66
I17
aI16
aI0
aI0
aa(lp67
I18
aI18
aI0
aI0
aa(lp68
I9
aI8
aI0
aI0
aa(lp69
I11
aI10
aI0
aI0
aa(lp70
I15
aI14
aI0
aI0
aa(lp71
I15
aI14
aI0
aI0
aa(lp72
I19
aI18
aI0
aI0
aa(lp73
I17
aI16
aI0
aI0
aa(lp74
I24
aI23
aI0
aI0
aa(lp75
I13
aI12
aI0
aI0
aa(lp76
I5
aI4
aI0
aI0
aa(lp77
I22
aI21
aI0
aI0
aa(lp78
I11
aI10
aI0
aI0
aa(lp79
I9
aI8
aI0
aI0
aa(lp80
I0
aI0
aI0
aI0
aa(lp81
I13
aI12
aI0
aI0
aa(lp82
I21
aI20
aI0
aI0
aa(lp83
I9
aI8
aI0
aI0
aa(lp84
I19
aI18
aI0
aI0
aa(lp85
I15
aI14
aI0
aI0
aa(lp86
I19
aI18
aI0
aI0
aa(lp87
I10
aI9
aI0
aI0
aa.