(lp1
(lp2
I28
aI27
aI0
aI0
aa(lp3
I11
aI10
aI0
aI0
aa(lp4
I13
aI12
aI0
aI0
aa(lp5
I13
aI12
aI0
aI0
aa(lp6
I13
aI12
aI0
aI0
aa(lp7
I15
aI13
aI0
aI0
aa(lp8
I13
aI12
aI0
aI0
aa(lp9
I15
aI14
aI0
aI0
aa(lp10
I17
aI16
aI0
aI0
aa(lp11
I19
aI18
aI0
aI0
aa(lp12
I9
aI8
aI0
aI0
aa(lp13
I3
aI2
aI0
aI0
aa(lp14
I15
aI14
aI0
aI0
aa(lp15
I15
aI14
aI0
aI0
aa(lp16
I18
aI17
aI0
aI0
aa(lp17
I9
aI8
aI0
aI0
aa(lp18
I7
aI6
aI0
aI0
aa(lp19
I15
aI14
aI0
aI0
aa(lp20
I13
aI12
aI0
aI0
aa(lp21
I19
aI18
aI0
aI0
aa(lp22
I5
aI4
aI0
aI0
aa(lp23
I11
aI10
aI0
aI0
aa(lp24
I17
aI16
aI0
aI0
aa(lp25
I15
aI14
aI0
aI2
aa(lp26
I19
aI18
aI0
aI0
aa(lp27
I17
aI16
aI0
aI0
aa(lp28
I13
aI12
aI0
aI0
aa(lp29
I15
aI14
aI0
aI0
aa(lp30
I15
aI14
aI0
aI0
aa(lp31
I15
aI14
aI0
aI2
aa(lp32
I13
aI12
aI0
aI0
aa(lp33
I13
aI12
aI0
aI0
aa(lp34
I19
aI18
aI0
aI0
aa(lp35
I17
aI16
aI0
aI2
aa(lp36
I13
aI12
aI0
aI0
aa(lp37
I3
aI2
aI0
aI0
aa(lp38
I15
aI14
aI0
aI0
aa(lp39
I19
aI18
aI0
aI0
aa(lp40
I21
aI20
aI0
aI0
aa(lp41
I16
aI16
aI0
aI0
aa(lp42
I15
aI14
aI0
aI0
aa(lp43
I13
aI12
aI0
aI0
aa(lp44
I15
aI14
aI0
aI0
aa(lp45
I19
aI18
aI0
aI2
aa(lp46
I11
aI10
aI0
aI0
aa(lp47
I15
aI14
aI0
aI0
aa(lp48
I13
aI12
aI0
aI0
aa(lp49
I14
aI13
aI0
aI0
aa(lp50
I11
aI10
aI0
aI0
aa(lp51
I11
aI10
aI0
aI0
aa(lp52
I11
aI10
aI0
aI0
aa(lp53
I9
aI8
aI0
aI0
aa(lp54
I11
aI10
aI0
aI0
aa(lp55
I17
aI16
aI0
aI0
aa(lp56
I9
aI8
aI0
aI0
aa(lp57
I13
aI12
aI0
aI0
aa(lp58
I13
aI12
aI0
aI0
aa(lp59
I13
aI12
aI0
aI0
aa(lp60
I7
aI6
aI0
aI0
aa(lp61
I17
aI16
aI0
aI0
aa(lp62
I13
aI12
aI0
aI0
aa(lp63
I3
aI2
aI0
aI0
aa(lp64
I19
aI18
aI0
aI0
aa(lp65
I15
aI14
aI0
aI0
aa(lp66
I11
aI10
aI0
aI0
aa(lp67
I19
aI19
aI0
aI0
aa(lp68
I5
aI4
aI0
aI0
aa(lp69
I6
aI5
aI0
aI0
aa(lp70
I13
aI12
aI0
aI0
aa(lp71
I12
aI11
aI0
aI0
aa(lp72
I7
aI6
aI0
aI0
aa(lp73
I7
aI6
aI0
aI0
aa(lp74
I9
aI8
aI0
aI0
aa(lp75
I14
aI13
aI0
aI0
aa(lp76
I15
aI14
aI0
aI0
aa(lp77
I5
aI4
aI0
aI0
aa(lp78
I17
aI16
aI0
aI0
aa(lp79
I11
aI10
aI0
aI0
aa(lp80
I13
aI12
aI0
aI0
aa(lp81
I11
aI10
aI0
aI0
aa(lp82
I17
aI16
aI0
aI0
aa(lp83
I11
aI10
aI0
aI0
aa(lp84
I26
aI25
aI0
aI4
aa(lp85
I17
aI16
aI0
aI0
aa(lp86
I14
aI14
aI0
aI0
aa(lp87
I15
aI14
aI0
aI0
aa(lp88
I15
aI14
aI0
aI0
aa(lp89
I17
aI16
aI0
aI2
aa.