(lp1
(lp2
I5
aI4
aI0
aI0
aa(lp3
I17
aI16
aI0
aI0
aa(lp4
I9
aI8
aI0
aI0
aa(lp5
I7
aI6
aI0
aI0
aa(lp6
I10
aI9
aI0
aI0
aa(lp7
I7
aI6
aI0
aI0
aa(lp8
I7
aI6
aI0
aI0
aa(lp9
I7
aI6
aI0
aI0
aa(lp10
I5
aI4
aI0
aI0
aa(lp11
I14
aI14
aI0
aI0
aa(lp12
I17
aI16
aI0
aI0
aa(lp13
I15
aI14
aI0
aI0
aa(lp14
I13
aI12
aI0
aI0
aa(lp15
I22
aI21
aI0
aI0
aa(lp16
I13
aI12
aI0
aI0
aa(lp17
I19
aI18
aI0
aI0
aa(lp18
I23
aI22
aI0
aI0
aa(lp19
I15
aI14
aI0
aI0
aa(lp20
I14
aI14
aI0
aI0
aa(lp21
I13
aI12
aI0
aI0
aa(lp22
I13
aI12
aI0
aI0
aa(lp23
I14
aI13
aI0
aI0
aa(lp24
I15
aI14
aI0
aI0
aa(lp25
I9
aI8
aI0
aI0
aa(lp26
I17
aI16
aI0
aI0
aa(lp27
I7
aI6
aI0
aI0
aa(lp28
I13
aI12
aI0
aI0
aa(lp29
I9
aI8
aI0
aI0
aa(lp30
I7
aI6
aI0
aI0
aa(lp31
I15
aI14
aI0
aI0
aa(lp32
I14
aI13
aI0
aI0
aa(lp33
I9
aI8
aI0
aI0
aa(lp34
I7
aI6
aI0
aI0
aa(lp35
I16
aI16
aI0
aI0
aa(lp36
I13
aI12
aI0
aI0
aa(lp37
I17
aI16
aI0
aI0
aa(lp38
I18
aI17
aI0
aI0
aa(lp39
I13
aI12
aI0
aI0
aa(lp40
I13
aI12
aI0
aI0
aa(lp41
I20
aI19
aI0
aI0
aa(lp42
I13
aI12
aI0
aI0
aa(lp43
I5
aI4
aI0
aI0
aa(lp44
I9
aI8
aI0
aI0
aa(lp45
I9
aI8
aI0
aI0
aa(lp46
I17
aI16
aI0
aI0
aa(lp47
I42
aI41
aI0
aI0
aa(lp48
I11
aI10
aI0
aI0
aa(lp49
I13
aI12
aI0
aI0
aa(lp50
I15
aI14
aI0
aI0
aa(lp51
I9
aI8
aI0
aI0
aa(lp52
I15
aI14
aI0
aI0
aa(lp53
I11
aI10
aI0
aI0
aa(lp54
I9
aI8
aI0
aI0
aa(lp55
I9
aI8
aI0
aI0
aa(lp56
I9
aI8
aI0
aI0
aa(lp57
I9
aI8
aI0
aI0
aa(lp58
I9
aI8
aI0
aI0
aa(lp59
I13
aI12
aI0
aI0
aa(lp60
I13
aI12
aI0
aI0
aa(lp61
I13
aI12
aI0
aI0
aa(lp62
I15
aI14
aI0
aI0
aa(lp63
I13
aI12
aI0
aI0
aa(lp64
I21
aI19
aI0
aI0
aa(lp65
I7
aI6
aI0
aI0
aa(lp66
I20
aI18
aI0
aI0
aa(lp67
I11
aI10
aI0
aI0
aa(lp68
I9
aI8
aI0
aI0
aa(lp69
I7
aI6
aI0
aI0
aa(lp70
I5
aI4
aI0
aI0
aa(lp71
I14
aI14
aI0
aI0
aa(lp72
I5
aI4
aI0
aI0
aa(lp73
I12
aI11
aI0
aI0
aa(lp74
I10
aI10
aI0
aI0
aa(lp75
I6
aI4
aI0
aI0
aa(lp76
I21
aI20
aI0
aI0
aa(lp77
I20
aI19
aI0
aI0
aa(lp78
I13
aI12
aI0
aI0
aa(lp79
I13
aI12
aI0
aI0
aa(lp80
I15
aI14
aI0
aI0
aa.