(lp1
(lp2
I9
aI8
aI0
aI2
aa(lp3
I17
aI16
aI0
aI0
aa(lp4
I12
aI11
aI0
aI0
aa(lp5
I16
aI16
aI0
aI0
aa(lp6
I17
aI16
aI0
aI0
aa(lp7
I19
aI17
aI0
aI0
aa(lp8
I17
aI16
aI0
aI0
aa(lp9
I5
aI4
aI0
aI0
aa(lp10
I15
aI14
aI0
aI0
aa(lp11
I21
aI20
aI0
aI0
aa(lp12
I25
aI24
aI0
aI0
aa(lp13
I15
aI14
aI0
aI0
aa(lp14
I19
aI18
aI0
aI0
aa(lp15
I15
aI14
aI0
aI0
aa(lp16
I15
aI14
aI0
aI0
aa(lp17
I15
aI14
aI0
aI0
aa(lp18
I22
aI21
aI0
aI0
aa(lp19
I9
aI8
aI0
aI0
aa(lp20
I19
aI18
aI0
aI0
aa(lp21
I11
aI10
aI0
aI0
aa(lp22
I17
aI16
aI0
aI0
aa(lp23
I25
aI24
aI0
aI0
aa(lp24
I23
aI21
aI0
aI0
aa(lp25
I19
aI18
aI0
aI0
aa(lp26
I7
aI6
aI0
aI0
aa(lp27
I7
aI6
aI0
aI0
aa(lp28
I11
aI10
aI0
aI0
aa(lp29
I13
aI12
aI0
aI0
aa(lp30
I11
aI10
aI0
aI0
aa(lp31
I5
aI4
aI0
aI0
aa(lp32
I7
aI6
aI0
aI0
aa(lp33
I13
aI12
aI0
aI0
aa(lp34
I15
aI14
aI0
aI0
aa(lp35
I17
aI16
aI0
aI0
aa(lp36
I8
aI8
aI0
aI0
aa(lp37
I5
aI4
aI0
aI0
aa(lp38
I20
aI19
aI0
aI0
aa(lp39
I11
aI10
aI0
aI0
aa(lp40
I17
aI17
aI0
aI0
aa(lp41
I5
aI4
aI0
aI0
aa(lp42
I11
aI10
aI0
aI0
aa(lp43
I17
aI16
aI0
aI0
aa(lp44
I15
aI14
aI0
aI0
aa(lp45
I14
aI14
aI0
aI0
aa(lp46
I7
aI6
aI0
aI0
aa(lp47
I14
aI13
aI0
aI0
aa(lp48
I15
aI14
aI0
aI0
aa(lp49
I15
aI14
aI0
aI0
aa(lp50
I13
aI12
aI0
aI0
aa(lp51
I13
aI12
aI0
aI0
aa(lp52
I11
aI10
aI0
aI0
aa(lp53
I15
aI14
aI0
aI0
aa(lp54
I14
aI14
aI0
aI0
aa(lp55
I15
aI14
aI0
aI0
aa(lp56
I10
aI9
aI0
aI0
aa(lp57
I7
aI6
aI0
aI0
aa(lp58
I17
aI16
aI0
aI0
aa(lp59
I21
aI20
aI0
aI0
aa(lp60
I10
aI11
aI0
aI0
aa(lp61
I16
aI15
aI0
aI0
aa(lp62
I15
aI14
aI0
aI0
aa(lp63
I15
aI13
aI0
aI0
aa(lp64
I9
aI7
aI0
aI0
aa(lp65
I11
aI10
aI0
aI0
aa(lp66
I17
aI16
aI0
aI0
aa(lp67
I7
aI6
aI0
aI0
aa(lp68
I13
aI12
aI0
aI0
aa(lp69
I16
aI15
aI0
aI0
aa(lp70
I14
aI13
aI0
aI0
aa(lp71
I11
aI10
aI0
aI0
aa(lp72
I20
aI19
aI0
aI0
aa(lp73
I11
aI10
aI0
aI0
aa(lp74
I16
aI16
aI0
aI0
aa(lp75
I20
aI19
aI0
aI0
aa(lp76
I13
aI12
aI0
aI0
aa(lp77
I9
aI8
aI0
aI0
aa(lp78
I9
aI8
aI0
aI0
aa(lp79
I3
aI2
aI0
aI0
aa(lp80
I17
aI16
aI0
aI0
aa(lp81
I11
aI10
aI0
aI0
aa(lp82
I11
aI10
aI0
aI0
aa(lp83
I13
aI12
aI0
aI0
aa(lp84
I13
aI12
aI0
aI0
aa(lp85
I15
aI13
aI0
aI0
aa(lp86
I5
aI4
aI0
aI0
aa(lp87
I21
aI20
aI0
aI0
aa.