(lp1
(lp2
I17
aI16
aI0
aI0
aa(lp3
I13
aI12
aI0
aI0
aa(lp4
I15
aI14
aI0
aI0
aa(lp5
I13
aI12
aI0
aI0
aa(lp6
I9
aI8
aI0
aI0
aa(lp7
I11
aI10
aI0
aI0
aa(lp8
I11
aI10
aI0
aI0
aa(lp9
I16
aI15
aI0
aI0
aa(lp10
I9
aI8
aI0
aI0
aa(lp11
I13
aI12
aI0
aI2
aa(lp12
I13
aI12
aI0
aI0
aa(lp13
I16
aI16
aI0
aI2
aa(lp14
I15
aI14
aI0
aI0
aa(lp15
I13
aI12
aI0
aI0
aa(lp16
I15
aI14
aI0
aI0
aa(lp17
I15
aI14
aI0
aI0
aa(lp18
I13
aI12
aI0
aI0
aa(lp19
I5
aI4
aI0
aI0
aa(lp20
I11
aI10
aI0
aI0
aa(lp21
I3
aI2
aI0
aI0
aa(lp22
I24
aI22
aI0
aI0
aa(lp23
I12
aI13
aI0
aI0
aa(lp24
I7
aI6
aI0
aI0
aa(lp25
I11
aI10
aI0
aI0
aa(lp26
I11
aI10
aI0
aI0
aa(lp27
I15
aI14
aI0
aI0
aa(lp28
I13
aI12
aI0
aI0
aa(lp29
I9
aI8
aI0
aI0
aa(lp30
I18
aI17
aI0
aI0
aa(lp31
I3
aI2
aI0
aI0
aa(lp32
I3
aI2
aI0
aI0
aa(lp33
I14
aI13
aI0
aI0
aa(lp34
I9
aI8
aI0
aI2
aa(lp35
I14
aI13
aI0
aI0
aa(lp36
I9
aI8
aI0
aI0
aa(lp37
I13
aI12
aI0
aI0
aa(lp38
I11
aI10
aI0
aI0
aa(lp39
I7
aI6
aI0
aI0
aa(lp40
I18
aI17
aI0
aI0
aa(lp41
I11
aI10
aI0
aI0
aa(lp42
I9
aI8
aI0
aI0
aa(lp43
I5
aI4
aI0
aI0
aa(lp44
I7
aI6
aI0
aI0
aa(lp45
I17
aI16
aI0
aI0
aa(lp46
I17
aI16
aI0
aI0
aa(lp47
I22
aI21
aI0
aI0
aa(lp48
I9
aI8
aI0
aI0
aa(lp49
I18
aI16
aI0
aI0
aa(lp50
I13
aI12
aI0
aI0
aa(lp51
I7
aI6
aI0
aI0
aa(lp52
I12
aI11
aI0
aI0
aa(lp53
I13
aI12
aI0
aI0
aa(lp54
I13
aI12
aI0
aI0
aa(lp55
I12
aI11
aI0
aI0
aa(lp56
I18
aI17
aI0
aI0
aa(lp57
I7
aI6
aI0
aI0
aa(lp58
I13
aI12
aI0
aI0
aa(lp59
I11
aI10
aI0
aI0
aa(lp60
I9
aI8
aI0
aI0
aa(lp61
I17
aI17
aI0
aI0
aa(lp62
I16
aI16
aI0
aI0
aa(lp63
I11
aI10
aI0
aI0
aa(lp64
I17
aI16
aI0
aI2
aa(lp65
I13
aI12
aI0
aI0
aa(lp66
I3
aI2
aI0
aI0
aa(lp67
I11
aI10
aI0
aI0
aa(lp68
I7
aI6
aI0
aI0
aa(lp69
I12
aI11
aI0
aI0
aa(lp70
I15
aI14
aI0
aI0
aa(lp71
I7
aI6
aI0
aI0
aa(lp72
I15
aI14
aI0
aI0
aa(lp73
I17
aI16
aI0
aI2
aa(lp74
I13
aI12
aI0
aI0
aa(lp75
I15
aI14
aI0
aI0
aa(lp76
I11
aI10
aI0
aI0
aa(lp77
I7
aI6
aI0
aI0
aa(lp78
I16
aI15
aI0
aI0
aa(lp79
I11
aI10
aI0
aI0
aa(lp80
I13
aI12
aI0
aI0
aa(lp81
I13
aI12
aI0
aI2
aa(lp82
I13
aI12
aI0
aI0
aa(lp83
I17
aI16
aI0
aI0
aa(lp84
I17
aI18
aI0
aI0
aa(lp85
I16
aI16
aI0
aI0
aa(lp86
I24
aI24
aI0
aI0
aa(lp87
I11
aI10
aI0
aI0
aa(lp88
I15
aI14
aI0
aI0
aa(lp89
I13
aI12
aI0
aI0
aa(lp90
I11
aI10
aI0
aI0
aa(lp91
I19
aI18
aI0
aI0
aa.