(lp1
(lp2
I11
aI10
aI0
aI0
aa(lp3
I12
aI11
aI0
aI0
aa(lp4
I15
aI14
aI0
aI0
aa(lp5
I11
aI10
aI0
aI0
aa(lp6
I13
aI12
aI0
aI0
aa(lp7
I9
aI8
aI0
aI0
aa(lp8
I15
aI14
aI0
aI0
aa(lp9
I12
aI11
aI0
aI0
aa(lp10
I3
aI2
aI0
aI0
aa(lp11
I11
aI10
aI0
aI0
aa(lp12
I11
aI10
aI0
aI0
aa(lp13
I11
aI10
aI0
aI0
aa(lp14
I14
aI15
aI0
aI0
aa(lp15
I13
aI12
aI0
aI0
aa(lp16
I15
aI14
aI0
aI2
aa(lp17
I15
aI14
aI0
aI0
aa(lp18
I21
aI20
aI0
aI0
aa(lp19
I8
aI7
aI0
aI0
aa(lp20
I13
aI12
aI0
aI2
aa(lp21
I15
aI14
aI0
aI2
aa(lp22
I21
aI20
aI0
aI0
aa(lp23
I3
aI2
aI0
aI0
aa(lp24
I13
aI12
aI0
aI0
aa(lp25
I11
aI10
aI0
aI0
aa(lp26
I15
aI14
aI0
aI0
aa(lp27
I13
aI12
aI0
aI0
aa(lp28
I15
aI14
aI0
aI0
aa(lp29
I15
aI14
aI0
aI0
aa(lp30
I15
aI14
aI0
aI0
aa(lp31
I33
aI28
aI0
aI0
aa(lp32
I3
aI2
aI0
aI0
aa(lp33
I16
aI15
aI0
aI0
aa(lp34
I13
aI12
aI0
aI0
aa(lp35
I11
aI10
aI0
aI0
aa(lp36
I9
aI8
aI0
aI0
aa(lp37
I36
aI35
aI0
aI2
aa(lp38
I14
aI13
aI0
aI0
aa(lp39
I10
aI9
aI0
aI0
aa(lp40
I5
aI4
aI0
aI0
aa(lp41
I5
aI4
aI0
aI0
aa(lp42
I13
aI12
aI0
aI0
aa(lp43
I15
aI14
aI0
aI0
aa(lp44
I30
aI30
aI0
aI0
aa(lp45
I31
aI31
aI0
aI0
aa(lp46
I11
aI10
aI0
aI0
aa(lp47
I7
aI6
aI0
aI0
aa(lp48
I7
aI6
aI0
aI0
aa(lp49
I11
aI10
aI0
aI0
aa(lp50
I11
aI10
aI0
aI0
aa(lp51
I11
aI10
aI0
aI0
aa(lp52
I9
aI8
aI0
aI0
aa(lp53
I14
aI13
aI0
aI0
aa(lp54
I3
aI2
aI0
aI0
aa(lp55
I11
aI10
aI0
aI0
aa(lp56
I7
aI6
aI0
aI0
aa(lp57
I3
aI2
aI0
aI0
aa(lp58
I5
aI4
aI0
aI0
aa(lp59
I13
aI12
aI0
aI0
aa(lp60
I9
aI8
aI0
aI0
aa(lp61
I15
aI14
aI0
aI0
aa(lp62
I21
aI20
aI0
aI2
aa(lp63
I7
aI6
aI0
aI0
aa(lp64
I13
aI12
aI0
aI0
aa(lp65
I13
aI12
aI0
aI0
aa(lp66
I19
aI17
aI0
aI2
aa(lp67
I16
aI15
aI0
aI0
aa(lp68
I13
aI12
aI0
aI0
aa(lp69
I17
aI16
aI0
aI0
aa(lp70
I19
aI18
aI0
aI0
aa(lp71
I7
aI6
aI0
aI0
aa(lp72
I13
aI12
aI0
aI0
aa(lp73
I17
aI16
aI0
aI0
aa(lp74
I19
aI18
aI0
aI0
aa(lp75
I7
aI6
aI0
aI0
aa(lp76
I3
aI2
aI0
aI0
aa(lp77
I10
aI9
aI0
aI0
aa(lp78
I11
aI10
aI0
aI0
aa(lp79
I9
aI8
aI0
aI0
aa(lp80
I7
aI6
aI0
aI0
aa(lp81
I11
aI10
aI0
aI0
aa(lp82
I9
aI8
aI0
aI0
aa.