(lp1
(lp2
I17
aI16
aI0
aI0
aa(lp3
I13
aI12
aI0
aI0
aa(lp4
I11
aI10
aI0
aI0
aa(lp5
I5
aI4
aI0
aI0
aa(lp6
I11
aI10
aI0
aI0
aa(lp7
I9
aI8
aI0
aI0
aa(lp8
I9
aI8
aI0
aI0
aa(lp9
I7
aI6
aI0
aI0
aa(lp10
I7
aI6
aI0
aI0
aa(lp11
I5
aI4
aI0
aI0
aa(lp12
I11
aI10
aI0
aI0
aa(lp13
I9
aI8
aI0
aI0
aa(lp14
I13
aI12
aI0
aI0
aa(lp15
I11
aI10
aI0
aI0
aa(lp16
I13
aI12
aI0
aI0
aa(lp17
I7
aI6
aI0
aI0
aa(lp18
I13
aI12
aI0
aI0
aa(lp19
I9
aI8
aI0
aI0
aa(lp20
I13
aI12
aI0
aI0
aa(lp21
I22
aI24
aI0
aI0
aa(lp22
I11
aI10
aI0
aI0
aa(lp23
I15
aI14
aI0
aI0
aa(lp24
I5
aI4
aI0
aI0
aa(lp25
I14
aI13
aI0
aI0
aa(lp26
I17
aI16
aI0
aI0
aa(lp27
I17
aI16
aI0
aI0
aa(lp28
I11
aI10
aI0
aI0
aa(lp29
I16
aI17
aI0
aI0
aa(lp30
I11
aI10
aI0
aI0
aa(lp31
I10
aI9
aI0
aI0
aa(lp32
I7
aI6
aI0
aI0
aa(lp33
I9
aI8
aI0
aI0
aa(lp34
I17
aI16
aI0
aI0
aa(lp35
I17
aI16
aI0
aI0
aa(lp36
I5
aI4
aI0
aI0
aa(lp37
I17
aI16
aI0
aI0
aa(lp38
I11
aI10
aI0
aI0
aa(lp39
I7
aI6
aI0
aI0
aa(lp40
I18
aI19
aI0
aI0
aa(lp41
I11
aI10
aI0
aI0
aa(lp42
I9
aI8
aI0
aI0
aa(lp43
I7
aI6
aI0
aI0
aa(lp44
I17
aI16
aI0
aI0
aa(lp45
I13
aI12
aI0
aI0
aa(lp46
I7
aI6
aI0
aI0
aa(lp47
I9
aI8
aI0
aI0
aa(lp48
I12
aI11
aI0
aI0
aa(lp49
I11
aI10
aI0
aI0
aa(lp50
I15
aI14
aI0
aI0
aa(lp51
I11
aI10
aI0
aI0
aa(lp52
I11
aI10
aI0
aI0
aa(lp53
I9
aI8
aI0
aI0
aa(lp54
I15
aI14
aI0
aI0
aa(lp55
I12
aI11
aI0
aI0
aa(lp56
I13
aI12
aI0
aI0
aa(lp57
I18
aI17
aI0
aI0
aa(lp58
I9
aI8
aI0
aI0
aa(lp59
I7
aI6
aI0
aI0
aa(lp60
I9
aI8
aI0
aI0
aa(lp61
I10
aI9
aI0
aI0
aa(lp62
I13
aI12
aI0
aI0
aa(lp63
I13
aI12
aI0
aI0
aa(lp64
I11
aI10
aI0
aI0
aa(lp65
I11
aI10
aI0
aI0
aa(lp66
I9
aI8
aI0
aI0
aa(lp67
I14
aI13
aI0
aI0
aa(lp68
I19
aI18
aI0
aI0
aa(lp69
I11
aI10
aI0
aI0
aa(lp70
I16
aI15
aI0
aI0
aa(lp71
I13
aI12
aI0
aI0
aa(lp72
I16
aI15
aI0
aI0
aa(lp73
I7
aI6
aI0
aI0
aa(lp74
I11
aI10
aI0
aI0
aa(lp75
I5
aI4
aI0
aI0
aa(lp76
I9
aI8
aI0
aI0
aa(lp77
I19
aI18
aI0
aI0
aa(lp78
I13
aI12
aI0
aI0
aa(lp79
I15
aI14
aI0
aI0
aa(lp80
I13
aI12
aI0
aI0
aa(lp81
I15
aI14
aI0
aI0
aa(lp82
I12
aI13
aI0
aI0
aa(lp83
I13
aI12
aI0
aI0
aa(lp84
I13
aI12
aI0
aI0
aa(lp85
I15
aI14
aI0
aI0
aa(lp86
I11
aI10
aI0
aI0
aa(lp87
I19
aI18
aI0
aI0
aa(lp88
I17
aI16
aI0
aI0
aa(lp89
I15
aI14
aI0
aI0
aa(lp90
I13
aI12
aI0
aI0
aa(lp91
I9
aI8
aI0
aI0
aa(lp92
I5
aI4
aI0
aI0
aa(lp93
I16
aI15
aI0
aI0
aa.