(lp1
(lp2
I17
aI16
aI0
aI0
aa(lp3
I14
aI13
aI0
aI0
aa(lp4
I0
aI0
aI0
aI0
aa(lp5
I19
aI18
aI0
aI0
aa(lp6
I13
aI12
aI0
aI0
aa(lp7
I13
aI12
aI0
aI0
aa(lp8
I5
aI4
aI0
aI0
aa(lp9
I7
aI6
aI0
aI0
aa(lp10
I13
aI13
aI0
aI0
aa(lp11
I15
aI14
aI0
aI0
aa(lp12
I3
aI2
aI0
aI0
aa(lp13
I11
aI10
aI0
aI0
aa(lp14
I7
aI6
aI0
aI0
aa(lp15
I15
aI14
aI0
aI0
aa(lp16
I3
aI2
aI0
aI0
aa(lp17
I17
aI16
aI0
aI0
aa(lp18
I13
aI12
aI0
aI0
aa(lp19
I9
aI8
aI0
aI0
aa(lp20
I8
aI7
aI0
aI0
aa(lp21
I11
aI10
aI0
aI0
aa(lp22
I21
aI20
aI0
aI0
aa(lp23
I11
aI10
aI0
aI0
aa(lp24
I3
aI2
aI0
aI0
aa(lp25
I7
aI6
aI0
aI0
aa(lp26
I5
aI4
aI0
aI0
aa(lp27
I14
aI13
aI0
aI0
aa(lp28
I11
aI10
aI0
aI0
aa(lp29
I13
aI12
aI0
aI0
aa(lp30
I11
aI10
aI0
aI0
aa(lp31
I7
aI6
aI0
aI0
aa(lp32
I8
aI7
aI0
aI0
aa(lp33
I13
aI12
aI0
aI0
aa(lp34
I20
aI19
aI0
aI2
aa(lp35
I9
aI8
aI0
aI0
aa(lp36
I5
aI4
aI0
aI0
aa(lp37
I11
aI10
aI0
aI0
aa(lp38
I11
aI10
aI0
aI0
aa(lp39
I11
aI10
aI0
aI0
aa(lp40
I11
aI10
aI0
aI0
aa(lp41
I7
aI6
aI0
aI0
aa(lp42
I14
aI14
aI0
aI0
aa(lp43
I11
aI10
aI0
aI0
aa(lp44
I9
aI8
aI0
aI0
aa(lp45
I13
aI12
aI0
aI0
aa(lp46
I9
aI8
aI0
aI0
aa(lp47
I11
aI10
aI0
aI0
aa(lp48
I7
aI6
aI0
aI0
aa(lp49
I7
aI6
aI0
aI0
aa(lp50
I3
aI2
aI0
aI0
aa(lp51
I20
aI19
aI0
aI0
aa(lp52
I13
aI12
aI0
aI0
aa(lp53
I15
aI15
aI0
aI0
aa(lp54
I11
aI10
aI0
aI0
aa(lp55
I9
aI8
aI0
aI0
aa(lp56
I15
aI14
aI0
aI2
aa(lp57
I9
aI8
aI0
aI0
aa(lp58
I9
aI8
aI0
aI0
aa(lp59
I13
aI12
aI0
aI0
aa(lp60
I9
aI8
aI0
aI0
aa(lp61
I9
aI8
aI0
aI0
aa(lp62
I5
aI4
aI0
aI0
aa(lp63
I9
aI8
aI0
aI0
aa(lp64
I9
aI8
aI0
aI0
aa(lp65
I11
aI10
aI0
aI0
aa(lp66
I9
aI8
aI0
aI0
aa(lp67
I9
aI8
aI0
aI0
aa(lp68
I7
aI6
aI0
aI0
aa(lp69
I13
aI12
aI0
aI0
aa(lp70
I15
aI14
aI0
aI0
aa(lp71
I17
aI16
aI0
aI0
aa(lp72
I13
aI12
aI0
aI0
aa(lp73
I17
aI16
aI0
aI2
aa(lp74
I9
aI8
aI0
aI0
aa(lp75
I14
aI13
aI0
aI2
aa(lp76
I11
aI10
aI0
aI0
aa(lp77
I33
aI33
aI0
aI0
aa(lp78
I7
aI6
aI0
aI0
aa(lp79
I17
aI16
aI0
aI0
aa(lp80
I11
aI10
aI0
aI0
aa(lp81
I10
aI9
aI0
aI2
aa(lp82
I9
aI8
aI0
aI0
aa(lp83
I13
aI12
aI0
aI0
aa(lp84
I11
aI10
aI0
aI0
aa(lp85
I13
aI12
aI0
aI0
aa(lp86
I13
aI12
aI0
aI0
aa(lp87
I13
aI12
aI0
aI2
aa(lp88
I5
aI4
aI0
aI0
aa(lp89
I13
aI12
aI0
aI0
aa(lp90
I15
aI14
aI0
aI0
aa(lp91
I11
aI10
aI0
aI0
aa(lp92
I11
aI10
aI0
aI0
aa(lp93
I11
aI10
aI0
aI0
aa.