(lp1
(lp2
I9
aI8
aI0
aI2
aa(lp3
I11
aI10
aI0
aI2
aa(lp4
I11
aI10
aI0
aI0
aa(lp5
I13
aI12
aI0
aI0
aa(lp6
I15
aI14
aI0
aI0
aa(lp7
I7
aI6
aI0
aI0
aa(lp8
I13
aI12
aI0
aI0
aa(lp9
I16
aI16
aI0
aI0
aa(lp10
I3
aI2
aI0
aI0
aa(lp11
I11
aI10
aI0
aI0
aa(lp12
I11
aI10
aI0
aI0
aa(lp13
I17
aI16
aI0
aI0
aa(lp14
I7
aI6
aI0
aI0
aa(lp15
I15
aI14
aI0
aI0
aa(lp16
I12
aI11
aI0
aI0
aa(lp17
I13
aI12
aI0
aI0
aa(lp18
I15
aI14
aI0
aI0
aa(lp19
I11
aI10
aI0
aI0
aa(lp20
I11
aI10
aI0
aI0
aa(lp21
I16
aI16
aI0
aI0
aa(lp22
I13
aI12
aI0
aI0
aa(lp23
I17
aI16
aI0
aI2
aa(lp24
I11
aI10
aI0
aI0
aa(lp25
I15
aI14
aI0
aI0
aa(lp26
I17
aI16
aI0
aI0
aa(lp27
I15
aI14
aI0
aI0
aa(lp28
I19
aI18
aI0
aI0
aa(lp29
I15
aI14
aI0
aI0
aa(lp30
I15
aI14
aI0
aI0
aa(lp31
I11
aI10
aI0
aI0
aa(lp32
I11
aI10
aI0
aI0
aa(lp33
I13
aI12
aI0
aI0
aa(lp34
I13
aI12
aI0
aI0
aa(lp35
I5
aI4
aI0
aI0
aa(lp36
I19
aI18
aI0
aI0
aa(lp37
I13
aI12
aI0
aI0
aa(lp38
I13
aI12
aI0
aI0
aa(lp39
I5
aI4
aI0
aI0
aa(lp40
I5
aI4
aI0
aI0
aa(lp41
I8
aI7
aI0
aI0
aa(lp42
I15
aI14
aI0
aI0
aa(lp43
I11
aI10
aI0
aI0
aa(lp44
I15
aI14
aI0
aI0
aa(lp45
I13
aI12
aI0
aI2
aa(lp46
I17
aI16
aI0
aI0
aa(lp47
I11
aI10
aI0
aI0
aa(lp48
I9
aI8
aI0
aI0
aa(lp49
I5
aI4
aI0
aI0
aa(lp50
I3
aI2
aI0
aI0
aa(lp51
I13
aI12
aI0
aI0
aa(lp52
I5
aI4
aI0
aI0
aa(lp53
I11
aI10
aI0
aI0
aa(lp54
I18
aI17
aI0
aI0
aa(lp55
I11
aI10
aI0
aI0
aa(lp56
I13
aI12
aI0
aI0
aa(lp57
I9
aI8
aI0
aI0
aa(lp58
I9
aI8
aI0
aI0
aa(lp59
I15
aI14
aI0
aI0
aa(lp60
I11
aI10
aI0
aI0
aa(lp61
I16
aI16
aI0
aI0
aa(lp62
I11
aI10
aI0
aI0
aa(lp63
I19
aI18
aI0
aI0
aa(lp64
I15
aI14
aI0
aI0
aa(lp65
I13
aI12
aI0
aI0
aa(lp66
I13
aI12
aI0
aI0
aa(lp67
I15
aI14
aI0
aI0
aa.