(lp1
(lp2
I13
aI12
aI0
aI0
aa(lp3
I19
aI18
aI0
aI0
aa(lp4
I15
aI14
aI0
aI0
aa(lp5
I13
aI12
aI0
aI0
aa(lp6
I11
aI10
aI0
aI0
aa(lp7
I20
aI20
aI0
aI2
aa(lp8
I13
aI12
aI0
aI0
aa(lp9
I17
aI16
aI0
aI0
aa(lp10
I17
aI16
aI0
aI0
aa(lp11
I19
aI18
aI0
aI0
aa(lp12
I13
aI12
aI0
aI0
aa(lp13
I15
aI14
aI0
aI0
aa(lp14
I19
aI18
aI0
aI0
aa(lp15
I15
aI14
aI0
aI0
aa(lp16
I15
aI14
aI0
aI0
aa(lp17
I15
aI14
aI0
aI0
aa(lp18
I15
aI14
aI0
aI0
aa(lp19
I15
aI14
aI0
aI0
aa(lp20
I16
aI15
aI0
aI0
aa(lp21
I19
aI18
aI0
aI0
aa(lp22
I15
aI14
aI0
aI0
aa(lp23
I15
aI14
aI0
aI0
aa(lp24
I17
aI16
aI0
aI0
aa(lp25
I14
aI13
aI0
aI0
aa(lp26
I14
aI14
aI0
aI0
aa(lp27
I11
aI10
aI0
aI0
aa(lp28
I15
aI14
aI0
aI0
aa(lp29
I11
aI10
aI0
aI0
aa(lp30
I13
aI12
aI0
aI0
aa(lp31
I11
aI10
aI0
aI0
aa(lp32
I13
aI14
aI0
aI0
aa(lp33
I13
aI12
aI0
aI0
aa(lp34
I13
aI12
aI0
aI0
aa(lp35
I13
aI12
aI0
aI0
aa(lp36
I13
aI12
aI0
aI0
aa(lp37
I21
aI20
aI0
aI0
aa(lp38
I13
aI12
aI0
aI0
aa(lp39
I11
aI10
aI0
aI0
aa(lp40
I15
aI14
aI0
aI0
aa(lp41
I15
aI14
aI0
aI0
aa(lp42
I17
aI16
aI0
aI0
aa(lp43
I11
aI10
aI0
aI0
aa(lp44
I15
aI14
aI0
aI0
aa(lp45
I9
aI8
aI0
aI0
aa(lp46
I11
aI10
aI0
aI0
aa(lp47
I11
aI10
aI0
aI0
aa(lp48
I11
aI10
aI0
aI0
aa(lp49
I13
aI12
aI0
aI0
aa(lp50
I11
aI10
aI0
aI0
aa(lp51
I17
aI16
aI0
aI0
aa(lp52
I14
aI14
aI0
aI0
aa(lp53
I14
aI13
aI0
aI0
aa(lp54
I17
aI16
aI0
aI0
aa(lp55
I17
aI16
aI0
aI0
aa(lp56
I11
aI10
aI0
aI0
aa(lp57
I23
aI22
aI0
aI0
aa(lp58
I17
aI16
aI0
aI0
aa(lp59
I13
aI12
aI0
aI0
aa(lp60
I15
aI14
aI0
aI0
aa(lp61
I20
aI20
aI0
aI0
aa(lp62
I13
aI12
aI0
aI0
aa(lp63
I9
aI8
aI0
aI0
aa(lp64
I15
aI14
aI0
aI0
aa(lp65
I24
aI22
aI0
aI0
aa(lp66
I17
aI16
aI0
aI0
aa(lp67
I15
aI14
aI0
aI0
aa(lp68
I15
aI14
aI0
aI0
aa(lp69
I15
aI14
aI0
aI0
aa(lp70
I15
aI14
aI0
aI0
aa(lp71
I5
aI4
aI0
aI0
aa(lp72
I11
aI10
aI0
aI0
aa(lp73
I17
aI16
aI0
aI0
aa(lp74
I7
aI6
aI0
aI0
aa(lp75
I11
aI10
aI0
aI0
aa(lp76
I11
aI10
aI0
aI0
aa(lp77
I11
aI10
aI0
aI0
aa(lp78
I13
aI12
aI0
aI2
aa(lp79
I9
aI8
aI0
aI0
aa(lp80
I13
aI12
aI0
aI0
aa(lp81
I15
aI14
aI0
aI0
aa(lp82
I17
aI16
aI0
aI0
aa(lp83
I15
aI14
aI0
aI0
aa(lp84
I17
aI16
aI0
aI0
aa(lp85
I14
aI13
aI0
aI0
aa(lp86
I15
aI14
aI0
aI0
aa(lp87
I11
aI10
aI0
aI0
aa(lp88
I19
aI18
aI0
aI0
aa(lp89
I9
aI8
aI0
aI0
aa(lp90
I18
aI17
aI0
aI2
aa.