(lp1
(lp2
I9
aI8
aI0
aI0
aa(lp3
I11
aI10
aI0
aI0
aa(lp4
I9
aI8
aI0
aI0
aa(lp5
I15
aI14
aI0
aI0
aa(lp6
I11
aI10
aI0
aI2
aa(lp7
I20
aI19
aI0
aI0
aa(lp8
I13
aI12
aI0
aI0
aa(lp9
I7
aI6
aI0
aI0
aa(lp10
I12
aI12
aI0
aI0
aa(lp11
I11
aI10
aI0
aI0
aa(lp12
I13
aI12
aI0
aI0
aa(lp13
I17
aI16
aI0
aI2
aa(lp14
I11
aI10
aI0
aI0
aa(lp15
I10
aI9
aI0
aI0
aa(lp16
I12
aI11
aI0
aI0
aa(lp17
I15
aI14
aI0
aI0
aa(lp18
I12
aI11
aI0
aI0
aa(lp19
I13
aI12
aI0
aI0
aa(lp20
I9
aI8
aI0
aI0
aa(lp21
I16
aI15
aI0
aI0
aa(lp22
I7
aI6
aI0
aI0
aa(lp23
I8
aI7
aI0
aI0
aa(lp24
I12
aI11
aI0
aI0
aa(lp25
I18
aI18
aI0
aI0
aa(lp26
I9
aI8
aI0
aI0
aa(lp27
I9
aI8
aI0
aI0
aa(lp28
I26
aI25
aI0
aI0
aa(lp29
I8
aI7
aI0
aI0
aa(lp30
I11
aI10
aI0
aI0
aa(lp31
I11
aI10
aI0
aI0
aa(lp32
I15
aI14
aI0
aI0
aa(lp33
I12
aI11
aI0
aI0
aa(lp34
I7
aI6
aI0
aI0
aa(lp35
I11
aI10
aI0
aI0
aa(lp36
I9
aI8
aI0
aI0
aa(lp37
I9
aI8
aI0
aI0
aa(lp38
I9
aI8
aI0
aI0
aa(lp39
I9
aI8
aI0
aI0
aa(lp40
I13
aI12
aI0
aI0
aa(lp41
I17
aI16
aI0
aI0
aa(lp42
I15
aI14
aI0
aI0
aa(lp43
I15
aI14
aI0
aI0
aa(lp44
I13
aI12
aI0
aI2
aa(lp45
I11
aI10
aI0
aI0
aa(lp46
I14
aI13
aI0
aI0
aa(lp47
I13
aI12
aI0
aI0
aa(lp48
I5
aI4
aI0
aI0
aa(lp49
I18
aI17
aI0
aI0
aa(lp50
I13
aI12
aI0
aI0
aa(lp51
I18
aI17
aI0
aI0
aa(lp52
I13
aI12
aI0
aI0
aa(lp53
I12
aI11
aI0
aI0
aa(lp54
I13
aI12
aI0
aI0
aa(lp55
I23
aI26
aI0
aI0
aa(lp56
I5
aI4
aI0
aI0
aa(lp57
I15
aI14
aI0
aI0
aa(lp58
I13
aI12
aI0
aI0
aa(lp59
I12
aI11
aI0
aI0
aa(lp60
I12
aI11
aI0
aI2
aa(lp61
I11
aI10
aI0
aI0
aa(lp62
I13
aI12
aI0
aI0
aa(lp63
I16
aI15
aI0
aI0
aa(lp64
I13
aI12
aI0
aI0
aa(lp65
I11
aI10
aI0
aI0
aa(lp66
I15
aI14
aI0
aI0
aa(lp67
I9
aI8
aI0
aI0
aa(lp68
I25
aI24
aI0
aI4
aa(lp69
I14
aI13
aI0
aI0
aa(lp70
I13
aI12
aI0
aI0
aa(lp71
I14
aI13
aI0
aI0
aa(lp72
I13
aI12
aI0
aI0
aa(lp73
I16
aI15
aI0
aI0
aa(lp74
I15
aI14
aI0
aI0
aa(lp75
I11
aI10
aI0
aI0
aa(lp76
I11
aI10
aI0
aI0
aa(lp77
I9
aI8
aI0
aI0
aa(lp78
I9
aI8
aI0
aI0
aa(lp79
I11
aI10
aI0
aI0
aa(lp80
I7
aI6
aI0
aI0
aa(lp81
I14
aI13
aI0
aI0
aa(lp82
I12
aI11
aI0
aI0
aa(lp83
I17
aI16
aI0
aI0
aa(lp84
I15
aI14
aI0
aI0
aa(lp85
I15
aI14
aI0
aI0
aa(lp86
I19
aI18
aI0
aI0
aa(lp87
I24
aI23
aI0
aI2
aa(lp88
I15
aI14
aI0
aI0
aa(lp89
I11
aI10
aI0
aI0
aa(lp90
I14
aI13
aI0
aI0
aa(lp91
I13
aI12
aI0
aI0
aa(lp92
I9
aI8
aI0
aI0
aa(lp93
I16
aI14
aI0
aI0
aa(lp94
I15
aI14
aI0
aI0
aa(lp95
I15
aI14
aI0
aI0
aa(lp96
I19
aI18
aI0
aI0
aa(lp97
I19
aI18
aI0
aI0
aa(lp98
I15
aI14
aI0
aI0
aa(lp99
I11
aI10
aI0
aI0
aa.