(lp1
(lp2
I13
aI12
aI0
aI0
aa(lp3
I16
aI15
aI0
aI0
aa(lp4
I14
aI13
aI0
aI0
aa(lp5
I21
aI18
aI0
aI0
aa(lp6
I19
aI18
aI0
aI0
aa(lp7
I9
aI8
aI0
aI0
aa(lp8
I9
aI8
aI0
aI0
aa(lp9
I11
aI10
aI0
aI0
aa(lp10
I9
aI7
aI0
aI0
aa(lp11
I12
aI11
aI0
aI0
aa(lp12
I15
aI14
aI0
aI0
aa(lp13
I21
aI20
aI0
aI0
aa(lp14
I13
aI12
aI0
aI0
aa(lp15
I9
aI8
aI0
aI0
aa(lp16
I13
aI12
aI0
aI0
aa(lp17
I13
aI12
aI0
aI0
aa(lp18
I17
aI16
aI0
aI0
aa(lp19
I7
aI6
aI0
aI0
aa(lp20
I13
aI12
aI0
aI0
aa(lp21
I13
aI12
aI0
aI0
aa(lp22
I13
aI12
aI0
aI0
aa(lp23
I11
aI10
aI0
aI0
aa(lp24
I11
aI10
aI0
aI0
aa(lp25
I9
aI6
aI0
aI0
aa(lp26
I17
aI16
aI0
aI0
aa(lp27
I14
aI13
aI0
aI0
aa(lp28
I7
aI6
aI0
aI0
aa(lp29
I14
aI13
aI0
aI0
aa(lp30
I9
aI8
aI0
aI0
aa(lp31
I11
aI10
aI0
aI0
aa(lp32
I9
aI8
aI0
aI0
aa(lp33
I18
aI17
aI0
aI0
aa(lp34
I13
aI12
aI0
aI0
aa(lp35
I16
aI15
aI0
aI0
aa(lp36
I9
aI8
aI0
aI0
aa(lp37
I13
aI12
aI0
aI0
aa(lp38
I17
aI16
aI0
aI0
aa(lp39
I13
aI12
aI0
aI0
aa(lp40
I9
aI8
aI0
aI0
aa(lp41
I11
aI10
aI0
aI0
aa(lp42
I9
aI8
aI0
aI0
aa(lp43
I7
aI6
aI0
aI0
aa(lp44
I11
aI10
aI0
aI0
aa(lp45
I17
aI16
aI0
aI0
aa(lp46
I11
aI10
aI0
aI0
aa(lp47
I9
aI8
aI0
aI0
aa(lp48
I9
aI8
aI0
aI0
aa(lp49
I7
aI6
aI0
aI0
aa(lp50
I7
aI6
aI0
aI0
aa(lp51
I19
aI18
aI0
aI0
aa(lp52
I13
aI12
aI0
aI0
aa(lp53
I5
aI4
aI0
aI0
aa(lp54
I9
aI8
aI0
aI0
aa(lp55
I15
aI14
aI0
aI0
aa(lp56
I13
aI14
aI0
aI0
aa(lp57
I19
aI18
aI0
aI0
aa(lp58
I13
aI12
aI0
aI0
aa(lp59
I15
aI14
aI0
aI2
aa(lp60
I12
aI15
aI0
aI0
aa(lp61
I19
aI18
aI0
aI0
aa(lp62
I11
aI10
aI0
aI0
aa(lp63
I11
aI10
aI0
aI0
aa(lp64
I15
aI14
aI0
aI0
aa(lp65
I11
aI10
aI0
aI0
aa(lp66
I21
aI20
aI0
aI0
aa(lp67
I11
aI10
aI0
aI0
aa(lp68
I9
aI8
aI0
aI0
aa(lp69
I15
aI14
aI0
aI0
aa(lp70
I9
aI8
aI0
aI0
aa(lp71
I9
aI8
aI0
aI0
aa(lp72
I11
aI10
aI0
aI0
aa(lp73
I12
aI11
aI0
aI0
aa(lp74
I13
aI12
aI0
aI0
aa(lp75
I15
aI14
aI0
aI0
aa(lp76
I13
aI12
aI0
aI0
aa(lp77
I13
aI12
aI0
aI0
aa(lp78
I7
aI6
aI0
aI0
aa(lp79
I15
aI14
aI0
aI0
aa(lp80
I15
aI14
aI0
aI0
aa(lp81
I15
aI14
aI0
aI0
aa(lp82
I21
aI20
aI0
aI0
aa(lp83
I8
aI7
aI0
aI0
aa(lp84
I0
aI0
aI0
aI0
aa(lp85
I17
aI16
aI0
aI0
aa(lp86
I20
aI19
aI0
aI0
aa(lp87
I15
aI14
aI0
aI0
aa(lp88
I17
aI16
aI0
aI0
aa(lp89
I13
aI12
aI0
aI0
aa(lp90
I15
aI14
aI0
aI0
aa(lp91
I9
aI8
aI0
aI0
aa(lp92
I17
aI16
aI0
aI0
aa(lp93
I9
aI8
aI0
aI0
aa.