(lp1
(lp2
I8
aI6
aI0
aI0
aa(lp3
I12
aI11
aI0
aI0
aa(lp4
I17
aI16
aI0
aI0
aa(lp5
I13
aI12
aI0
aI0
aa(lp6
I15
aI14
aI0
aI0
aa(lp7
I11
aI10
aI0
aI0
aa(lp8
I11
aI10
aI0
aI0
aa(lp9
I7
aI6
aI0
aI0
aa(lp10
I10
aI8
aI0
aI0
aa(lp11
I15
aI14
aI0
aI0
aa(lp12
I7
aI6
aI0
aI0
aa(lp13
I9
aI8
aI0
aI0
aa(lp14
I19
aI18
aI0
aI0
aa(lp15
I14
aI13
aI0
aI0
aa(lp16
I9
aI8
aI0
aI0
aa(lp17
I18
aI17
aI0
aI0
aa(lp18
I19
aI18
aI0
aI0
aa(lp19
I36
aI34
aI0
aI0
aa(lp20
I12
aI12
aI0
aI0
aa(lp21
I17
aI16
aI0
aI0
aa(lp22
I11
aI10
aI0
aI0
aa(lp23
I14
aI12
aI0
aI0
aa(lp24
I7
aI6
aI0
aI0
aa(lp25
I11
aI10
aI0
aI0
aa(lp26
I19
aI18
aI0
aI0
aa(lp27
I17
aI16
aI0
aI0
aa(lp28
I17
aI16
aI0
aI0
aa(lp29
I12
aI11
aI0
aI0
aa(lp30
I18
aI17
aI0
aI0
aa(lp31
I9
aI8
aI0
aI0
aa(lp32
I17
aI16
aI0
aI0
aa(lp33
I8
aI7
aI0
aI0
aa(lp34
I3
aI2
aI0
aI0
aa(lp35
I11
aI10
aI0
aI0
aa(lp36
I15
aI14
aI0
aI0
aa(lp37
I3
aI2
aI0
aI0
aa(lp38
I20
aI19
aI0
aI0
aa(lp39
I17
aI15
aI0
aI0
aa(lp40
I5
aI4
aI0
aI0
aa(lp41
I11
aI10
aI0
aI0
aa(lp42
I11
aI10
aI0
aI0
aa(lp43
I14
aI13
aI0
aI0
aa(lp44
I6
aI5
aI0
aI0
aa(lp45
I8
aI7
aI0
aI0
aa(lp46
I5
aI4
aI0
aI0
aa(lp47
I9
aI8
aI0
aI0
aa(lp48
I20
aI19
aI0
aI0
aa(lp49
I19
aI18
aI0
aI0
aa(lp50
I17
aI16
aI0
aI0
aa(lp51
I9
aI8
aI0
aI0
aa(lp52
I12
aI11
aI0
aI0
aa(lp53
I20
aI19
aI0
aI0
aa(lp54
I14
aI13
aI0
aI0
aa(lp55
I11
aI10
aI0
aI0
aa(lp56
I11
aI10
aI0
aI0
aa(lp57
I17
aI16
aI0
aI0
aa(lp58
I15
aI14
aI0
aI0
aa(lp59
I17
aI16
aI0
aI0
aa(lp60
I22
aI21
aI0
aI0
aa(lp61
I13
aI12
aI0
aI0
aa(lp62
I9
aI8
aI0
aI0
aa(lp63
I13
aI12
aI0
aI0
aa(lp64
I9
aI8
aI0
aI0
aa(lp65
I11
aI10
aI0
aI0
aa(lp66
I12
aI11
aI0
aI0
aa(lp67
I10
aI9
aI0
aI0
aa(lp68
I19
aI19
aI0
aI4
aa(lp69
I18
aI18
aI0
aI0
aa(lp70
I21
aI20
aI0
aI0
aa(lp71
I13
aI12
aI0
aI0
aa(lp72
I17
aI16
aI0
aI0
aa(lp73
I13
aI12
aI0
aI0
aa.