(lp1
(lp2
I11
aI10
aI0
aI0
aa(lp3
I9
aI9
aI0
aI0
aa(lp4
I9
aI8
aI0
aI0
aa(lp5
I7
aI6
aI0
aI0
aa(lp6
I13
aI13
aI0
aI2
aa(lp7
I9
aI8
aI0
aI0
aa(lp8
I9
aI8
aI0
aI0
aa(lp9
I9
aI8
aI0
aI0
aa(lp10
I11
aI10
aI0
aI0
aa(lp11
I11
aI10
aI0
aI0
aa(lp12
I19
aI18
aI0
aI0
aa(lp13
I11
aI10
aI0
aI0
aa(lp14
I20
aI18
aI0
aI0
aa(lp15
I13
aI12
aI0
aI0
aa(lp16
I13
aI12
aI0
aI0
aa(lp17
I15
aI14
aI0
aI0
aa(lp18
I13
aI12
aI0
aI0
aa(lp19
I11
aI10
aI0
aI0
aa(lp20
I11
aI10
aI0
aI0
aa(lp21
I13
aI12
aI0
aI0
aa(lp22
I11
aI10
aI0
aI0
aa(lp23
I13
aI12
aI0
aI0
aa(lp24
I13
aI12
aI0
aI0
aa(lp25
I13
aI12
aI0
aI0
aa(lp26
I11
aI10
aI0
aI0
aa(lp27
I9
aI8
aI0
aI0
aa(lp28
I13
aI12
aI0
aI0
aa(lp29
I14
aI13
aI0
aI0
aa(lp30
I11
aI10
aI0
aI0
aa(lp31
I15
aI14
aI0
aI0
aa(lp32
I9
aI8
aI0
aI0
aa(lp33
I12
aI11
aI0
aI0
aa(lp34
I17
aI16
aI0
aI0
aa(lp35
I13
aI12
aI0
aI0
aa(lp36
I10
aI9
aI0
aI0
aa(lp37
I9
aI8
aI0
aI0
aa(lp38
I9
aI8
aI0
aI0
aa(lp39
I15
aI14
aI0
aI0
aa(lp40
I8
aI7
aI0
aI0
aa(lp41
I13
aI12
aI0
aI0
aa(lp42
I13
aI12
aI0
aI0
aa(lp43
I13
aI12
aI0
aI0
aa(lp44
I15
aI14
aI0
aI0
aa(lp45
I12
aI10
aI0
aI0
aa(lp46
I11
aI10
aI0
aI0
aa(lp47
I11
aI10
aI0
aI0
aa(lp48
I13
aI12
aI0
aI0
aa(lp49
I17
aI16
aI0
aI0
aa(lp50
I15
aI14
aI0
aI0
aa(lp51
I11
aI10
aI0
aI0
aa(lp52
I11
aI10
aI0
aI0
aa(lp53
I17
aI16
aI0
aI0
aa(lp54
I8
aI7
aI0
aI0
aa(lp55
I17
aI16
aI0
aI0
aa(lp56
I5
aI4
aI0
aI0
aa(lp57
I19
aI18
aI0
aI0
aa(lp58
I9
aI8
aI0
aI0
aa(lp59
I15
aI14
aI0
aI0
aa(lp60
I13
aI12
aI0
aI0
aa(lp61
I15
aI14
aI0
aI0
aa(lp62
I15
aI14
aI0
aI0
aa(lp63
I13
aI12
aI0
aI0
aa(lp64
I13
aI12
aI0
aI0
aa(lp65
I7
aI6
aI0
aI0
aa(lp66
I12
aI11
aI0
aI0
aa(lp67
I17
aI16
aI0
aI0
aa(lp68
I3
aI2
aI0
aI0
aa(lp69
I17
aI16
aI0
aI2
aa(lp70
I9
aI8
aI0
aI0
aa(lp71
I9
aI8
aI0
aI0
aa(lp72
I9
aI8
aI0
aI0
aa(lp73
I9
aI8
aI0
aI0
aa(lp74
I15
aI14
aI0
aI2
aa(lp75
I9
aI8
aI0
aI0
aa(lp76
I15
aI14
aI0
aI0
aa(lp77
I21
aI20
aI0
aI0
aa(lp78
I9
aI8
aI0
aI0
aa(lp79
I5
aI4
aI0
aI0
aa(lp80
I9
aI8
aI0
aI0
aa(lp81
I15
aI14
aI0
aI0
aa(lp82
I7
aI6
aI0
aI0
aa(lp83
I11
aI10
aI0
aI0
aa(lp84
I13
aI12
aI0
aI0
aa(lp85
I15
aI14
aI0
aI0
aa(lp86
I20
aI19
aI0
aI0
aa(lp87
I12
aI11
aI0
aI0
aa(lp88
I15
aI14
aI0
aI0
aa(lp89
I15
aI14
aI0
aI0
aa(lp90
I12
aI11
aI0
aI0
aa(lp91
I15
aI14
aI0
aI0
aa(lp92
I15
aI14
aI0
aI0
aa(lp93
I13
aI12
aI0
aI2
aa(lp94
I13
aI12
aI0
aI2
aa(lp95
I15
aI14
aI0
aI0
aa(lp96
I13
aI12
aI0
aI0
aa(lp97
I13
aI12
aI0
aI2
aa(lp98
I11
aI10
aI0
aI0
aa(lp99
I11
aI10
aI0
aI0
aa.