(lp1
(lp2
I16
aI16
aI0
aI0
aa(lp3
I9
aI8
aI0
aI0
aa(lp4
I11
aI10
aI0
aI0
aa(lp5
I9
aI8
aI0
aI0
aa(lp6
I15
aI14
aI0
aI0
aa(lp7
I13
aI12
aI0
aI0
aa(lp8
I5
aI4
aI0
aI0
aa(lp9
I12
aI11
aI0
aI0
aa(lp10
I9
aI8
aI0
aI0
aa(lp11
I13
aI12
aI0
aI0
aa(lp12
I9
aI8
aI0
aI0
aa(lp13
I19
aI18
aI0
aI0
aa(lp14
I17
aI16
aI0
aI0
aa(lp15
I15
aI14
aI0
aI0
aa(lp16
I15
aI14
aI0
aI0
aa(lp17
I13
aI12
aI0
aI0
aa(lp18
I15
aI14
aI0
aI0
aa(lp19
I13
aI12
aI0
aI0
aa(lp20
I15
aI14
aI0
aI0
aa(lp21
I11
aI10
aI0
aI0
aa(lp22
I17
aI16
aI0
aI0
aa(lp23
I13
aI12
aI0
aI0
aa(lp24
I9
aI8
aI0
aI0
aa(lp25
I9
aI8
aI0
aI0
aa(lp26
I17
aI16
aI0
aI0
aa(lp27
I13
aI12
aI0
aI0
aa(lp28
I15
aI14
aI0
aI0
aa(lp29
I9
aI8
aI0
aI0
aa(lp30
I19
aI18
aI0
aI0
aa(lp31
I3
aI2
aI0
aI0
aa(lp32
I13
aI11
aI0
aI0
aa(lp33
I15
aI14
aI0
aI0
aa(lp34
I3
aI2
aI0
aI0
aa(lp35
I9
aI7
aI0
aI0
aa(lp36
I15
aI14
aI0
aI0
aa(lp37
I11
aI10
aI0
aI0
aa(lp38
I11
aI10
aI0
aI0
aa(lp39
I11
aI10
aI0
aI0
aa(lp40
I13
aI12
aI0
aI0
aa(lp41
I13
aI12
aI0
aI0
aa(lp42
I15
aI14
aI0
aI0
aa(lp43
I13
aI12
aI0
aI0
aa(lp44
I9
aI8
aI0
aI0
aa(lp45
I5
aI4
aI0
aI0
aa(lp46
I11
aI10
aI0
aI0
aa(lp47
I3
aI2
aI0
aI0
aa(lp48
I8
aI7
aI0
aI0
aa(lp49
I9
aI8
aI0
aI0
aa(lp50
I9
aI8
aI0
aI0
aa(lp51
I9
aI8
aI0
aI0
aa(lp52
I17
aI16
aI0
aI0
aa(lp53
I7
aI6
aI0
aI0
aa(lp54
I13
aI12
aI0
aI0
aa(lp55
I15
aI14
aI0
aI0
aa(lp56
I5
aI4
aI0
aI0
aa(lp57
I7
aI6
aI0
aI0
aa(lp58
I5
aI4
aI0
aI0
aa(lp59
I4
aI3
aI0
aI0
aa(lp60
I13
aI12
aI0
aI0
aa(lp61
I11
aI10
aI0
aI0
aa(lp62
I7
aI6
aI0
aI0
aa(lp63
I7
aI6
aI0
aI0
aa(lp64
I9
aI8
aI0
aI0
aa(lp65
I8
aI7
aI0
aI0
aa(lp66
I19
aI18
aI0
aI0
aa(lp67
I15
aI14
aI0
aI0
aa(lp68
I11
aI10
aI0
aI0
aa(lp69
I13
aI12
aI0
aI0
aa(lp70
I13
aI12
aI0
aI0
aa(lp71
I13
aI12
aI0
aI0
aa(lp72
I11
aI10
aI0
aI0
aa(lp73
I11
aI10
aI0
aI0
aa(lp74
I7
aI6
aI0
aI0
aa(lp75
I17
aI16
aI0
aI0
aa(lp76
I19
aI18
aI0
aI0
aa(lp77
I11
aI10
aI0
aI0
aa(lp78
I11
aI10
aI0
aI0
aa(lp79
I15
aI14
aI0
aI0
aa(lp80
I7
aI6
aI0
aI0
aa(lp81
I15
aI14
aI0
aI0
aa(lp82
I17
aI16
aI0
aI0
aa(lp83
I5
aI4
aI0
aI0
aa(lp84
I12
aI12
aI0
aI0
aa(lp85
I8
aI7
aI0
aI0
aa(lp86
I15
aI14
aI0
aI0
aa.