(lp1
(lp2
I21
aI20
aI0
aI0
aa(lp3
I13
aI12
aI0
aI0
aa(lp4
I5
aI4
aI0
aI0
aa(lp5
I9
aI8
aI0
aI0
aa(lp6
I14
aI14
aI0
aI0
aa(lp7
I3
aI2
aI0
aI0
aa(lp8
I7
aI6
aI0
aI0
aa(lp9
I13
aI12
aI0
aI0
aa(lp10
I13
aI12
aI0
aI0
aa(lp11
I15
aI14
aI0
aI0
aa(lp12
I16
aI15
aI0
aI0
aa(lp13
I21
aI20
aI0
aI2
aa(lp14
I13
aI12
aI0
aI0
aa(lp15
I11
aI10
aI0
aI0
aa(lp16
I17
aI16
aI0
aI0
aa(lp17
I13
aI12
aI0
aI0
aa(lp18
I9
aI8
aI0
aI0
aa(lp19
I17
aI16
aI0
aI0
aa(lp20
I9
aI8
aI0
aI0
aa(lp21
I10
aI9
aI0
aI0
aa(lp22
I9
aI8
aI0
aI0
aa(lp23
I9
aI8
aI0
aI0
aa(lp24
I7
aI6
aI0
aI0
aa(lp25
I18
aI17
aI0
aI0
aa(lp26
I20
aI19
aI0
aI0
aa(lp27
I9
aI8
aI0
aI0
aa(lp28
I11
aI10
aI0
aI0
aa(lp29
I7
aI6
aI0
aI0
aa(lp30
I11
aI10
aI0
aI0
aa(lp31
I15
aI14
aI0
aI0
aa(lp32
I17
aI16
aI0
aI0
aa(lp33
I11
aI10
aI0
aI0
aa(lp34
I23
aI23
aI0
aI2
aa(lp35
I20
aI19
aI0
aI2
aa(lp36
I3
aI2
aI0
aI0
aa(lp37
I7
aI6
aI0
aI0
aa(lp38
I11
aI10
aI0
aI0
aa(lp39
I13
aI12
aI0
aI0
aa(lp40
I7
aI6
aI0
aI0
aa(lp41
I5
aI4
aI0
aI0
aa(lp42
I13
aI12
aI0
aI0
aa(lp43
I11
aI10
aI0
aI0
aa(lp44
I3
aI2
aI0
aI0
aa(lp45
I3
aI2
aI0
aI0
aa(lp46
I14
aI14
aI0
aI0
aa(lp47
I21
aI20
aI0
aI2
aa(lp48
I15
aI16
aI0
aI0
aa(lp49
I0
aI0
aI0
aI0
aa(lp50
I0
aI0
aI0
aI0
aa(lp51
I9
aI8
aI0
aI0
aa(lp52
I0
aI0
aI0
aI0
aa(lp53
I16
aI15
aI0
aI0
aa(lp54
I11
aI10
aI0
aI0
aa(lp55
I13
aI12
aI0
aI0
aa(lp56
I12
aI11
aI0
aI0
aa(lp57
I3
aI2
aI0
aI0
aa(lp58
I3
aI2
aI0
aI0
aa(lp59
I11
aI10
aI0
aI0
aa(lp60
I3
aI2
aI0
aI0
aa(lp61
I7
aI6
aI0
aI0
aa(lp62
I10
aI9
aI0
aI0
aa(lp63
I17
aI16
aI0
aI0
aa(lp64
I9
aI8
aI0
aI0
aa(lp65
I15
aI14
aI0
aI0
aa(lp66
I8
aI7
aI0
aI0
aa(lp67
I16
aI15
aI0
aI0
aa(lp68
I3
aI2
aI0
aI0
aa(lp69
I21
aI20
aI0
aI0
aa(lp70
I17
aI16
aI0
aI0
aa(lp71
I17
aI16
aI0
aI0
aa(lp72
I15
aI14
aI0
aI0
aa(lp73
I12
aI11
aI0
aI2
aa(lp74
I18
aI17
aI0
aI0
aa(lp75
I33
aI31
aI0
aI0
aa(lp76
I16
aI16
aI0
aI0
aa(lp77
I23
aI22
aI0
aI0
aa(lp78
I15
aI14
aI0
aI0
aa(lp79
I5
aI4
aI0
aI0
aa(lp80
I11
aI10
aI0
aI0
aa(lp81
I16
aI15
aI0
aI2
aa(lp82
I9
aI8
aI0
aI0
aa(lp83
I11
aI10
aI0
aI0
aa(lp84
I5
aI4
aI0
aI0
aa(lp85
I11
aI10
aI0
aI0
aa(lp86
I13
aI12
aI0
aI0
aa(lp87
I12
aI11
aI0
aI0
aa(lp88
I13
aI12
aI0
aI0
aa(lp89
I11
aI10
aI0
aI0
aa.