(lp1
(lp2
I8
aI7
aI0
aI0
aa(lp3
I3
aI2
aI0
aI0
aa(lp4
I11
aI10
aI0
aI0
aa(lp5
I13
aI15
aI0
aI0
aa(lp6
I6
aI6
aI0
aI0
aa(lp7
I3
aI2
aI0
aI0
aa(lp8
I9
aI8
aI0
aI0
aa(lp9
I9
aI8
aI0
aI0
aa(lp10
I9
aI8
aI0
aI0
aa(lp11
I17
aI15
aI0
aI0
aa(lp12
I13
aI12
aI0
aI0
aa(lp13
I13
aI12
aI0
aI0
aa(lp14
I7
aI6
aI0
aI0
aa(lp15
I7
aI6
aI0
aI0
aa(lp16
I11
aI10
aI0
aI0
aa(lp17
I15
aI14
aI0
aI0
aa(lp18
I9
aI8
aI0
aI0
aa(lp19
I7
aI6
aI0
aI0
aa(lp20
I9
aI8
aI0
aI0
aa(lp21
I20
aI17
aI0
aI0
aa(lp22
I19
aI16
aI0
aI0
aa(lp23
I11
aI10
aI0
aI0
aa(lp24
I16
aI14
aI0
aI0
aa(lp25
I11
aI10
aI0
aI0
aa(lp26
I16
aI14
aI0
aI0
aa(lp27
I10
aI9
aI0
aI0
aa(lp28
I14
aI13
aI0
aI0
aa(lp29
I7
aI6
aI0
aI0
aa(lp30
I17
aI15
aI0
aI0
aa(lp31
I10
aI9
aI0
aI0
aa(lp32
I18
aI16
aI0
aI0
aa(lp33
I7
aI6
aI0
aI0
aa(lp34
I5
aI4
aI0
aI0
aa(lp35
I9
aI8
aI0
aI0
aa(lp36
I11
aI12
aI0
aI0
aa(lp37
I5
aI4
aI0
aI0
aa(lp38
I3
aI2
aI0
aI0
aa(lp39
I19
aI19
aI0
aI0
aa(lp40
I9
aI8
aI0
aI0
aa(lp41
I17
aI16
aI0
aI0
aa(lp42
I3
aI2
aI0
aI0
aa(lp43
I5
aI4
aI0
aI0
aa(lp44
I14
aI14
aI0
aI0
aa(lp45
I11
aI10
aI0
aI0
aa(lp46
I20
aI20
aI0
aI0
aa(lp47
I13
aI12
aI0
aI0
aa(lp48
I5
aI4
aI0
aI0
aa(lp49
I11
aI10
aI0
aI0
aa(lp50
I18
aI16
aI0
aI0
aa(lp51
I5
aI4
aI0
aI0
aa(lp52
I16
aI16
aI0
aI0
aa(lp53
I5
aI4
aI0
aI0
aa(lp54
I9
aI8
aI0
aI0
aa(lp55
I13
aI12
aI0
aI0
aa(lp56
I5
aI4
aI0
aI0
aa(lp57
I9
aI8
aI0
aI0
aa(lp58
I13
aI12
aI0
aI0
aa(lp59
I11
aI10
aI0
aI0
aa(lp60
I15
aI14
aI0
aI0
aa(lp61
I11
aI10
aI0
aI0
aa(lp62
I9
aI8
aI0
aI0
aa(lp63
I9
aI8
aI0
aI0
aa(lp64
I12
aI12
aI0
aI0
aa(lp65
I9
aI8
aI0
aI0
aa(lp66
I9
aI8
aI0
aI0
aa(lp67
I9
aI8
aI0
aI0
aa(lp68
I11
aI10
aI0
aI0
aa(lp69
I9
aI8
aI0
aI0
aa(lp70
I9
aI8
aI0
aI0
aa(lp71
I9
aI8
aI0
aI0
aa(lp72
I11
aI10
aI0
aI0
aa(lp73
I15
aI14
aI0
aI0
aa(lp74
I10
aI9
aI0
aI0
aa(lp75
I10
aI10
aI0
aI0
aa(lp76
I11
aI10
aI0
aI0
aa(lp77
I11
aI10
aI0
aI0
aa(lp78
I3
aI2
aI0
aI0
aa(lp79
I11
aI10
aI0
aI0
aa(lp80
I15
aI14
aI0
aI0
aa(lp81
I10
aI9
aI0
aI0
aa(lp82
I12
aI11
aI0
aI0
aa(lp83
I9
aI8
aI0
aI0
aa(lp84
I11
aI10
aI0
aI0
aa(lp85
I5
aI4
aI0
aI0
aa(lp86
I6
aI5
aI0
aI0
aa(lp87
I9
aI8
aI0
aI0
aa(lp88
I7
aI6
aI0
aI0
aa(lp89
I15
aI14
aI0
aI0
aa(lp90
I14
aI14
aI0
aI0
aa(lp91
I7
aI6
aI0
aI0
aa(lp92
I14
aI13
aI0
aI0
aa.