(lp1
(lp2
I14
aI13
aI0
aI0
aa(lp3
I17
aI16
aI0
aI0
aa(lp4
I17
aI16
aI0
aI0
aa(lp5
I13
aI12
aI0
aI0
aa(lp6
I11
aI10
aI0
aI0
aa(lp7
I9
aI8
aI0
aI0
aa(lp8
I9
aI8
aI0
aI0
aa(lp9
I17
aI16
aI0
aI2
aa(lp10
I12
aI11
aI0
aI0
aa(lp11
I14
aI13
aI0
aI0
aa(lp12
I13
aI12
aI0
aI0
aa(lp13
I11
aI10
aI0
aI0
aa(lp14
I26
aI24
aI0
aI0
aa(lp15
I13
aI12
aI0
aI0
aa(lp16
I11
aI10
aI0
aI0
aa(lp17
I13
aI12
aI0
aI0
aa(lp18
I5
aI4
aI0
aI0
aa(lp19
I9
aI8
aI0
aI0
aa(lp20
I19
aI19
aI0
aI0
aa(lp21
I13
aI14
aI0
aI0
aa(lp22
I15
aI14
aI0
aI0
aa(lp23
I13
aI12
aI0
aI0
aa(lp24
I21
aI20
aI0
aI0
aa(lp25
I11
aI10
aI0
aI0
aa(lp26
I11
aI10
aI0
aI0
aa(lp27
I13
aI12
aI0
aI0
aa(lp28
I15
aI14
aI0
aI0
aa(lp29
I12
aI11
aI0
aI0
aa(lp30
I11
aI10
aI0
aI0
aa(lp31
I15
aI14
aI0
aI0
aa(lp32
I9
aI8
aI0
aI0
aa(lp33
I13
aI11
aI0
aI0
aa(lp34
I16
aI15
aI0
aI0
aa(lp35
I11
aI11
aI0
aI0
aa(lp36
I9
aI8
aI0
aI0
aa(lp37
I13
aI12
aI0
aI0
aa(lp38
I9
aI8
aI0
aI0
aa(lp39
I5
aI4
aI0
aI0
aa(lp40
I15
aI14
aI0
aI0
aa(lp41
I10
aI9
aI0
aI0
aa(lp42
I13
aI12
aI0
aI0
aa(lp43
I3
aI2
aI0
aI0
aa(lp44
I14
aI13
aI0
aI0
aa(lp45
I17
aI16
aI0
aI0
aa(lp46
I11
aI10
aI0
aI0
aa(lp47
I7
aI6
aI0
aI0
aa(lp48
I13
aI12
aI0
aI0
aa(lp49
I11
aI10
aI0
aI0
aa(lp50
I13
aI12
aI0
aI0
aa(lp51
I17
aI16
aI0
aI0
aa(lp52
I7
aI6
aI0
aI0
aa(lp53
I18
aI17
aI0
aI0
aa(lp54
I16
aI16
aI0
aI0
aa(lp55
I11
aI10
aI0
aI0
aa(lp56
I27
aI26
aI0
aI0
aa(lp57
I13
aI12
aI0
aI0
aa(lp58
I16
aI15
aI0
aI2
aa(lp59
I13
aI12
aI0
aI0
aa(lp60
I17
aI15
aI0
aI0
aa(lp61
I11
aI10
aI0
aI0
aa(lp62
I9
aI8
aI0
aI0
aa(lp63
I7
aI6
aI0
aI0
aa(lp64
I20
aI19
aI0
aI0
aa(lp65
I13
aI12
aI0
aI0
aa(lp66
I16
aI16
aI0
aI0
aa(lp67
I11
aI10
aI0
aI0
aa(lp68
I15
aI14
aI0
aI0
aa(lp69
I13
aI12
aI0
aI0
aa(lp70
I11
aI10
aI0
aI0
aa(lp71
I17
aI16
aI0
aI2
aa(lp72
I13
aI12
aI0
aI0
aa(lp73
I13
aI12
aI0
aI0
aa(lp74
I12
aI12
aI0
aI2
aa(lp75
I15
aI14
aI0
aI0
aa(lp76
I17
aI16
aI0
aI2
aa(lp77
I14
aI13
aI0
aI0
aa(lp78
I15
aI14
aI0
aI0
aa(lp79
I14
aI13
aI0
aI0
aa(lp80
I11
aI10
aI0
aI0
aa(lp81
I18
aI17
aI0
aI0
aa(lp82
I12
aI12
aI0
aI0
aa(lp83
I11
aI10
aI0
aI0
aa(lp84
I11
aI10
aI0
aI0
aa(lp85
I15
aI14
aI0
aI0
aa(lp86
I15
aI14
aI0
aI0
aa(lp87
I10
aI9
aI0
aI0
aa(lp88
I11
aI10
aI0
aI0
aa(lp89
I13
aI12
aI0
aI0
aa(lp90
I13
aI12
aI0
aI0
aa(lp91
I9
aI8
aI0
aI0
aa(lp92
I5
aI4
aI0
aI0
aa(lp93
I31
aI29
aI0
aI0
aa(lp94
I13
aI13
aI0
aI0
aa(lp95
I13
aI13
aI0
aI0
aa(lp96
I11
aI10
aI0
aI0
aa(lp97
I17
aI16
aI0
aI0
aa(lp98
I17
aI16
aI0
aI0
aa.