(lp1
(lp2
I5
aI4
aI0
aI0
aa(lp3
I5
aI4
aI0
aI0
aa(lp4
I9
aI8
aI0
aI0
aa(lp5
I5
aI4
aI0
aI0
aa(lp6
I3
aI2
aI0
aI0
aa(lp7
I13
aI12
aI0
aI0
aa(lp8
I9
aI8
aI0
aI0
aa(lp9
I13
aI12
aI0
aI0
aa(lp10
I11
aI10
aI0
aI0
aa(lp11
I9
aI8
aI0
aI0
aa(lp12
I9
aI8
aI0
aI0
aa(lp13
I15
aI14
aI0
aI0
aa(lp14
I7
aI6
aI0
aI0
aa(lp15
I11
aI10
aI0
aI0
aa(lp16
I8
aI7
aI0
aI0
aa(lp17
I17
aI16
aI0
aI0
aa(lp18
I5
aI4
aI0
aI0
aa(lp19
I11
aI10
aI0
aI0
aa(lp20
I15
aI14
aI0
aI0
aa(lp21
I5
aI4
aI0
aI0
aa(lp22
I5
aI4
aI0
aI0
aa(lp23
I7
aI6
aI0
aI0
aa(lp24
I15
aI14
aI0
aI0
aa(lp25
I17
aI16
aI0
aI0
aa(lp26
I12
aI12
aI0
aI0
aa(lp27
I19
aI19
aI0
aI0
aa(lp28
I17
aI16
aI0
aI0
aa(lp29
I11
aI10
aI0
aI0
aa(lp30
I11
aI10
aI0
aI0
aa(lp31
I17
aI16
aI0
aI2
aa(lp32
I13
aI12
aI0
aI0
aa(lp33
I3
aI2
aI0
aI0
aa(lp34
I3
aI2
aI0
aI0
aa(lp35
I3
aI2
aI0
aI0
aa(lp36
I22
aI21
aI0
aI0
aa(lp37
I13
aI12
aI0
aI0
aa(lp38
I13
aI12
aI0
aI0
aa(lp39
I8
aI7
aI0
aI0
aa(lp40
I7
aI6
aI0
aI0
aa(lp41
I17
aI16
aI0
aI2
aa(lp42
I5
aI4
aI0
aI0
aa(lp43
I17
aI16
aI0
aI0
aa(lp44
I16
aI16
aI0
aI0
aa(lp45
I13
aI12
aI0
aI0
aa(lp46
I7
aI6
aI0
aI2
aa(lp47
I5
aI4
aI0
aI0
aa(lp48
I8
aI7
aI0
aI0
aa(lp49
I7
aI6
aI0
aI0
aa(lp50
I7
aI6
aI0
aI2
aa(lp51
I15
aI14
aI0
aI0
aa(lp52
I30
aI27
aI0
aI4
aa(lp53
I13
aI12
aI0
aI0
aa(lp54
I11
aI10
aI0
aI0
aa(lp55
I9
aI8
aI0
aI0
aa(lp56
I11
aI10
aI0
aI0
aa(lp57
I7
aI6
aI0
aI0
aa(lp58
I13
aI12
aI0
aI2
aa(lp59
I9
aI8
aI0
aI0
aa(lp60
I13
aI12
aI0
aI0
aa(lp61
I17
aI16
aI0
aI0
aa(lp62
I9
aI8
aI0
aI0
aa(lp63
I22
aI21
aI0
aI2
aa(lp64
I9
aI8
aI0
aI0
aa(lp65
I13
aI12
aI0
aI0
aa(lp66
I16
aI16
aI0
aI2
aa(lp67
I19
aI18
aI0
aI0
aa(lp68
I7
aI6
aI0
aI0
aa(lp69
I16
aI15
aI0
aI0
aa(lp70
I6
aI6
aI0
aI0
aa(lp71
I11
aI10
aI0
aI0
aa(lp72
I29
aI27
aI0
aI2
aa(lp73
I13
aI12
aI0
aI0
aa(lp74
I11
aI10
aI0
aI0
aa(lp75
I11
aI10
aI0
aI0
aa(lp76
I16
aI15
aI0
aI0
aa(lp77
I15
aI14
aI0
aI0
aa(lp78
I13
aI12
aI0
aI0
aa(lp79
I17
aI16
aI0
aI0
aa(lp80
I12
aI11
aI0
aI0
aa(lp81
I11
aI10
aI0
aI0
aa(lp82
I17
aI16
aI0
aI0
aa(lp83
I22
aI21
aI0
aI0
aa(lp84
I7
aI6
aI0
aI0
aa(lp85
I5
aI4
aI0
aI0
aa(lp86
I17
aI16
aI0
aI0
aa(lp87
I9
aI8
aI0
aI0
aa(lp88
I7
aI6
aI0
aI0
aa(lp89
I18
aI18
aI0
aI0
aa(lp90
I5
aI4
aI0
aI2
aa(lp91
I8
aI6
aI0
aI0
aa.