(lp1
(lp2
I11
aI9
aI0
aI0
aa(lp3
I11
aI10
aI0
aI0
aa(lp4
I11
aI10
aI0
aI0
aa(lp5
I9
aI8
aI0
aI0
aa(lp6
I19
aI18
aI0
aI0
aa(lp7
I10
aI9
aI0
aI0
aa(lp8
I13
aI12
aI0
aI0
aa(lp9
I7
aI6
aI0
aI0
aa(lp10
I9
aI8
aI0
aI0
aa(lp11
I5
aI4
aI0
aI0
aa(lp12
I9
aI8
aI0
aI0
aa(lp13
I11
aI10
aI0
aI0
aa(lp14
I13
aI12
aI0
aI0
aa(lp15
I13
aI12
aI0
aI0
aa(lp16
I9
aI8
aI0
aI0
aa(lp17
I13
aI12
aI0
aI0
aa(lp18
I11
aI10
aI0
aI0
aa(lp19
I13
aI12
aI0
aI0
aa(lp20
I13
aI12
aI0
aI0
aa(lp21
I13
aI12
aI0
aI0
aa(lp22
I13
aI12
aI0
aI0
aa(lp23
I11
aI10
aI0
aI0
aa(lp24
I5
aI4
aI0
aI0
aa(lp25
I13
aI12
aI0
aI0
aa(lp26
I14
aI13
aI0
aI0
aa(lp27
I18
aI17
aI0
aI0
aa(lp28
I12
aI11
aI0
aI0
aa(lp29
I13
aI12
aI0
aI0
aa(lp30
I11
aI10
aI0
aI0
aa(lp31
I19
aI18
aI0
aI0
aa(lp32
I11
aI10
aI0
aI0
aa(lp33
I9
aI8
aI0
aI0
aa(lp34
I10
aI9
aI0
aI0
aa(lp35
I9
aI8
aI0
aI0
aa(lp36
I13
aI12
aI0
aI0
aa(lp37
I9
aI8
aI0
aI0
aa(lp38
I13
aI12
aI0
aI0
aa(lp39
I13
aI12
aI0
aI0
aa(lp40
I11
aI10
aI0
aI0
aa(lp41
I17
aI16
aI0
aI0
aa(lp42
I11
aI10
aI0
aI0
aa(lp43
I13
aI12
aI0
aI0
aa(lp44
I10
aI10
aI0
aI0
aa(lp45
I13
aI12
aI0
aI0
aa(lp46
I31
aI29
aI0
aI0
aa(lp47
I9
aI8
aI0
aI0
aa(lp48
I5
aI4
aI0
aI0
aa(lp49
I13
aI12
aI0
aI0
aa(lp50
I11
aI10
aI0
aI0
aa(lp51
I12
aI11
aI0
aI0
aa(lp52
I5
aI4
aI0
aI0
aa(lp53
I16
aI15
aI0
aI0
aa(lp54
I11
aI10
aI0
aI0
aa(lp55
I19
aI18
aI0
aI0
aa(lp56
I11
aI10
aI0
aI0
aa(lp57
I13
aI12
aI0
aI0
aa(lp58
I7
aI6
aI0
aI0
aa(lp59
I13
aI12
aI0
aI0
aa(lp60
I16
aI15
aI0
aI0
aa(lp61
I16
aI15
aI0
aI0
aa(lp62
I11
aI10
aI0
aI0
aa(lp63
I13
aI12
aI0
aI0
aa(lp64
I3
aI2
aI0
aI0
aa(lp65
I7
aI6
aI0
aI0
aa(lp66
I17
aI16
aI0
aI0
aa(lp67
I11
aI10
aI0
aI0
aa(lp68
I13
aI12
aI0
aI0
aa(lp69
I9
aI8
aI0
aI0
aa(lp70
I13
aI12
aI0
aI0
aa(lp71
I7
aI6
aI0
aI0
aa(lp72
I7
aI6
aI0
aI0
aa(lp73
I7
aI6
aI0
aI0
aa(lp74
I16
aI15
aI0
aI0
aa(lp75
I11
aI10
aI0
aI0
aa(lp76
I14
aI13
aI0
aI0
aa(lp77
I6
aI5
aI0
aI0
aa(lp78
I13
aI12
aI0
aI0
aa(lp79
I13
aI12
aI0
aI0
aa(lp80
I9
aI8
aI0
aI0
aa(lp81
I7
aI6
aI0
aI0
aa(lp82
I7
aI6
aI0
aI0
aa(lp83
I9
aI8
aI0
aI0
aa(lp84
I13
aI12
aI0
aI0
aa(lp85
I11
aI10
aI0
aI0
aa(lp86
I14
aI13
aI0
aI0
aa(lp87
I13
aI12
aI0
aI0
aa(lp88
I11
aI10
aI0
aI0
aa(lp89
I13
aI12
aI0
aI0
aa(lp90
I9
aI8
aI0
aI0
aa(lp91
I17
aI16
aI0
aI0
aa(lp92
I7
aI6
aI0
aI0
aa(lp93
I7
aI6
aI0
aI0
aa(lp94
I13
aI12
aI0
aI0
aa(lp95
I11
aI10
aI0
aI0
aa(lp96
I13
aI12
aI0
aI0
aa(lp97
I15
aI14
aI0
aI0
aa(lp98
I9
aI8
aI0
aI0
aa.