(lp1
(lp2
I11
aI10
aI0
aI0
aa(lp3
I11
aI10
aI0
aI0
aa(lp4
I9
aI8
aI0
aI0
aa(lp5
I5
aI4
aI0
aI0
aa(lp6
I9
aI8
aI0
aI0
aa(lp7
I11
aI10
aI0
aI0
aa(lp8
I11
aI10
aI0
aI0
aa(lp9
I7
aI6
aI0
aI0
aa(lp10
I13
aI12
aI0
aI0
aa(lp11
I17
aI16
aI0
aI0
aa(lp12
I16
aI16
aI0
aI0
aa(lp13
I13
aI12
aI0
aI0
aa(lp14
I14
aI13
aI0
aI0
aa(lp15
I5
aI4
aI0
aI0
aa(lp16
I0
aI0
aI0
aI0
aa(lp17
I9
aI8
aI0
aI0
aa(lp18
I11
aI10
aI0
aI0
aa(lp19
I16
aI15
aI0
aI0
aa(lp20
I9
aI8
aI0
aI0
aa(lp21
I9
aI8
aI0
aI0
aa(lp22
I9
aI8
aI0
aI0
aa(lp23
I3
aI2
aI0
aI0
aa(lp24
I15
aI14
aI0
aI0
aa(lp25
I7
aI6
aI0
aI0
aa(lp26
I7
aI6
aI0
aI0
aa(lp27
I13
aI12
aI0
aI0
aa(lp28
I6
aI5
aI0
aI0
aa(lp29
I13
aI12
aI0
aI0
aa(lp30
I3
aI2
aI0
aI0
aa(lp31
I13
aI12
aI0
aI2
aa(lp32
I9
aI8
aI0
aI0
aa(lp33
I13
aI12
aI0
aI0
aa(lp34
I11
aI10
aI0
aI0
aa(lp35
I9
aI8
aI0
aI0
aa(lp36
I11
aI10
aI0
aI0
aa(lp37
I17
aI16
aI0
aI0
aa(lp38
I16
aI16
aI0
aI0
aa(lp39
I12
aI11
aI0
aI0
aa(lp40
I13
aI12
aI0
aI0
aa(lp41
I15
aI14
aI0
aI0
aa(lp42
I17
aI16
aI0
aI0
aa(lp43
I20
aI19
aI0
aI0
aa(lp44
I10
aI9
aI0
aI0
aa(lp45
I11
aI10
aI0
aI0
aa(lp46
I12
aI11
aI0
aI0
aa(lp47
I7
aI6
aI0
aI0
aa(lp48
I14
aI14
aI0
aI0
aa(lp49
I7
aI6
aI0
aI0
aa(lp50
I3
aI2
aI0
aI0
aa(lp51
I0
aI0
aI0
aI0
aa(lp52
I22
aI21
aI0
aI0
aa(lp53
I19
aI18
aI0
aI0
aa(lp54
I17
aI16
aI0
aI0
aa(lp55
I12
aI11
aI0
aI0
aa(lp56
I16
aI15
aI0
aI0
aa(lp57
I10
aI9
aI0
aI0
aa(lp58
I16
aI16
aI0
aI0
aa(lp59
I13
aI12
aI0
aI0
aa(lp60
I13
aI12
aI0
aI0
aa(lp61
I14
aI13
aI0
aI0
aa(lp62
I17
aI16
aI0
aI0
aa(lp63
I13
aI12
aI0
aI0
aa(lp64
I11
aI10
aI0
aI0
aa(lp65
I9
aI8
aI0
aI0
aa(lp66
I8
aI7
aI0
aI0
aa(lp67
I7
aI6
aI0
aI0
aa(lp68
I9
aI8
aI0
aI0
aa(lp69
I13
aI11
aI0
aI0
aa.