(lp1
(lp2
I14
aI13
aI0
aI0
aa(lp3
I17
aI16
aI0
aI0
aa(lp4
I5
aI4
aI0
aI0
aa(lp5
I9
aI8
aI0
aI0
aa(lp6
I14
aI13
aI0
aI0
aa(lp7
I17
aI16
aI0
aI0
aa(lp8
I13
aI12
aI0
aI0
aa(lp9
I11
aI10
aI0
aI0
aa(lp10
I16
aI15
aI0
aI0
aa(lp11
I13
aI12
aI0
aI0
aa(lp12
I13
aI12
aI0
aI0
aa(lp13
I5
aI4
aI0
aI0
aa(lp14
I13
aI13
aI0
aI2
aa(lp15
I15
aI14
aI0
aI0
aa(lp16
I7
aI6
aI0
aI0
aa(lp17
I11
aI10
aI0
aI0
aa(lp18
I15
aI14
aI0
aI0
aa(lp19
I13
aI12
aI0
aI0
aa(lp20
I19
aI18
aI0
aI2
aa(lp21
I18
aI17
aI0
aI0
aa(lp22
I15
aI14
aI0
aI0
aa(lp23
I11
aI10
aI0
aI0
aa(lp24
I7
aI6
aI0
aI0
aa(lp25
I5
aI4
aI0
aI0
aa(lp26
I17
aI16
aI0
aI0
aa(lp27
I9
aI8
aI0
aI0
aa(lp28
I9
aI8
aI0
aI0
aa(lp29
I5
aI4
aI0
aI0
aa(lp30
I15
aI14
aI0
aI0
aa(lp31
I16
aI15
aI0
aI0
aa(lp32
I9
aI8
aI0
aI0
aa(lp33
I7
aI6
aI0
aI0
aa(lp34
I5
aI4
aI0
aI0
aa(lp35
I19
aI18
aI0
aI0
aa(lp36
I13
aI12
aI0
aI0
aa(lp37
I16
aI15
aI0
aI0
aa(lp38
I19
aI18
aI0
aI0
aa(lp39
I18
aI17
aI0
aI0
aa(lp40
I9
aI8
aI0
aI0
aa(lp41
I13
aI12
aI0
aI0
aa(lp42
I17
aI15
aI0
aI0
aa(lp43
I11
aI10
aI0
aI0
aa(lp44
I13
aI12
aI0
aI0
aa(lp45
I5
aI4
aI0
aI0
aa(lp46
I5
aI4
aI0
aI0
aa(lp47
I14
aI13
aI0
aI0
aa(lp48
I13
aI12
aI0
aI0
aa(lp49
I5
aI4
aI0
aI0
aa(lp50
I5
aI4
aI0
aI0
aa(lp51
I7
aI6
aI0
aI0
aa(lp52
I11
aI10
aI0
aI0
aa(lp53
I19
aI18
aI0
aI0
aa(lp54
I11
aI10
aI0
aI0
aa(lp55
I21
aI20
aI0
aI0
aa(lp56
I5
aI4
aI0
aI0
aa(lp57
I15
aI14
aI0
aI0
aa(lp58
I15
aI14
aI0
aI0
aa(lp59
I14
aI13
aI0
aI0
aa(lp60
I13
aI12
aI0
aI0
aa(lp61
I9
aI8
aI0
aI0
aa(lp62
I15
aI14
aI0
aI0
aa(lp63
I11
aI10
aI0
aI0
aa(lp64
I17
aI16
aI0
aI0
aa(lp65
I5
aI4
aI0
aI0
aa(lp66
I11
aI10
aI0
aI0
aa(lp67
I9
aI8
aI0
aI0
aa(lp68
I9
aI8
aI0
aI0
aa(lp69
I7
aI6
aI0
aI0
aa(lp70
I17
aI14
aI0
aI0
aa(lp71
I12
aI10
aI0
aI0
aa(lp72
I3
aI2
aI0
aI0
aa(lp73
I15
aI14
aI0
aI0
aa(lp74
I10
aI9
aI0
aI0
aa(lp75
I11
aI10
aI0
aI0
aa(lp76
I9
aI8
aI0
aI0
aa(lp77
I9
aI8
aI0
aI0
aa(lp78
I7
aI6
aI0
aI0
aa(lp79
I3
aI2
aI0
aI0
aa(lp80
I14
aI14
aI0
aI0
aa(lp81
I10
aI9
aI0
aI0
aa(lp82
I10
aI8
aI0
aI0
aa(lp83
I7
aI6
aI0
aI0
aa(lp84
I7
aI6
aI0
aI0
aa(lp85
I11
aI10
aI0
aI0
aa(lp86
I7
aI6
aI0
aI0
aa(lp87
I7
aI6
aI0
aI0
aa(lp88
I11
aI10
aI0
aI0
aa(lp89
I11
aI10
aI0
aI0
aa(lp90
I11
aI10
aI0
aI0
aa(lp91
I9
aI8
aI0
aI0
aa(lp92
I9
aI8
aI0
aI0
aa(lp93
I9
aI8
aI0
aI0
aa(lp94
I13
aI12
aI0
aI0
aa(lp95
I9
aI8
aI0
aI0
aa(lp96
I5
aI4
aI0
aI0
aa.