(lp1
(lp2
I11
aI10
aI0
aI0
aa(lp3
I12
aI11
aI0
aI0
aa(lp4
I5
aI4
aI0
aI0
aa(lp5
I3
aI2
aI0
aI0
aa(lp6
I11
aI10
aI0
aI0
aa(lp7
I11
aI10
aI0
aI0
aa(lp8
I17
aI16
aI0
aI0
aa(lp9
I11
aI10
aI0
aI0
aa(lp10
I10
aI9
aI0
aI0
aa(lp11
I13
aI12
aI0
aI0
aa(lp12
I13
aI12
aI0
aI0
aa(lp13
I11
aI10
aI0
aI0
aa(lp14
I9
aI8
aI0
aI0
aa(lp15
I3
aI2
aI0
aI0
aa(lp16
I9
aI8
aI0
aI0
aa(lp17
I11
aI10
aI0
aI0
aa(lp18
I9
aI8
aI0
aI0
aa(lp19
I7
aI6
aI0
aI0
aa(lp20
I9
aI8
aI0
aI0
aa(lp21
I3
aI2
aI0
aI0
aa(lp22
I21
aI21
aI0
aI0
aa(lp23
I15
aI14
aI0
aI0
aa(lp24
I13
aI12
aI0
aI0
aa(lp25
I15
aI14
aI0
aI0
aa(lp26
I17
aI16
aI0
aI0
aa(lp27
I18
aI17
aI0
aI0
aa(lp28
I3
aI2
aI0
aI0
aa(lp29
I21
aI21
aI0
aI2
aa(lp30
I21
aI22
aI0
aI2
aa(lp31
I5
aI4
aI0
aI0
aa(lp32
I7
aI6
aI0
aI0
aa(lp33
I3
aI2
aI0
aI0
aa(lp34
I11
aI10
aI0
aI0
aa(lp35
I7
aI6
aI0
aI0
aa(lp36
I16
aI15
aI0
aI0
aa(lp37
I14
aI13
aI0
aI0
aa(lp38
I17
aI16
aI0
aI0
aa(lp39
I15
aI14
aI0
aI0
aa(lp40
I7
aI6
aI0
aI0
aa(lp41
I13
aI12
aI0
aI0
aa(lp42
I12
aI11
aI0
aI0
aa(lp43
I11
aI10
aI0
aI0
aa(lp44
I13
aI12
aI0
aI0
aa(lp45
I3
aI2
aI0
aI0
aa(lp46
I7
aI6
aI0
aI0
aa(lp47
I7
aI6
aI0
aI0
aa(lp48
I12
aI11
aI0
aI0
aa(lp49
I17
aI16
aI0
aI2
aa(lp50
I9
aI8
aI0
aI0
aa(lp51
I13
aI12
aI0
aI0
aa(lp52
I15
aI14
aI0
aI0
aa(lp53
I3
aI2
aI0
aI0
aa(lp54
I10
aI10
aI0
aI0
aa(lp55
I5
aI4
aI0
aI0
aa(lp56
I14
aI14
aI0
aI0
aa(lp57
I6
aI6
aI0
aI0
aa(lp58
I9
aI8
aI0
aI0
aa(lp59
I16
aI15
aI0
aI2
aa(lp60
I18
aI17
aI0
aI2
aa(lp61
I8
aI7
aI0
aI0
aa(lp62
I5
aI4
aI0
aI0
aa(lp63
I7
aI6
aI0
aI0
aa(lp64
I9
aI8
aI0
aI0
aa(lp65
I7
aI6
aI0
aI0
aa(lp66
I7
aI6
aI0
aI0
aa(lp67
I13
aI12
aI0
aI0
aa(lp68
I10
aI10
aI0
aI0
aa(lp69
I9
aI8
aI0
aI0
aa(lp70
I5
aI4
aI0
aI0
aa(lp71
I15
aI14
aI0
aI0
aa(lp72
I8
aI7
aI0
aI0
aa(lp73
I7
aI6
aI0
aI0
aa(lp74
I13
aI12
aI0
aI0
aa(lp75
I12
aI11
aI0
aI0
aa(lp76
I7
aI6
aI0
aI0
aa(lp77
I5
aI4
aI0
aI0
aa(lp78
I7
aI6
aI0
aI0
aa(lp79
I9
aI8
aI0
aI0
aa(lp80
I15
aI15
aI0
aI0
aa(lp81
I12
aI13
aI0
aI0
aa(lp82
I14
aI13
aI0
aI0
aa.