(lp1
(lp2
I9
aI8
aI0
aI0
aa(lp3
I13
aI12
aI0
aI0
aa(lp4
I13
aI12
aI0
aI0
aa(lp5
I19
aI18
aI0
aI0
aa(lp6
I13
aI12
aI0
aI0
aa(lp7
I7
aI6
aI0
aI0
aa(lp8
I10
aI9
aI0
aI0
aa(lp9
I13
aI12
aI0
aI0
aa(lp10
I20
aI19
aI0
aI0
aa(lp11
I9
aI8
aI0
aI0
aa(lp12
I15
aI14
aI0
aI0
aa(lp13
I17
aI16
aI0
aI0
aa(lp14
I18
aI18
aI0
aI0
aa(lp15
I11
aI10
aI0
aI0
aa(lp16
I25
aI25
aI0
aI0
aa(lp17
I13
aI12
aI0
aI0
aa(lp18
I20
aI19
aI0
aI0
aa(lp19
I10
aI9
aI0
aI0
aa(lp20
I17
aI16
aI0
aI0
aa(lp21
I19
aI18
aI0
aI0
aa(lp22
I17
aI16
aI0
aI0
aa(lp23
I20
aI19
aI0
aI0
aa(lp24
I9
aI8
aI0
aI0
aa(lp25
I13
aI12
aI0
aI2
aa(lp26
I15
aI14
aI0
aI0
aa(lp27
I7
aI6
aI0
aI0
aa(lp28
I7
aI6
aI0
aI0
aa(lp29
I9
aI8
aI0
aI0
aa(lp30
I13
aI12
aI0
aI0
aa(lp31
I11
aI10
aI0
aI0
aa(lp32
I9
aI8
aI0
aI0
aa(lp33
I17
aI16
aI0
aI2
aa(lp34
I18
aI18
aI0
aI0
aa(lp35
I13
aI14
aI0
aI0
aa(lp36
I13
aI12
aI0
aI0
aa(lp37
I16
aI15
aI0
aI0
aa(lp38
I5
aI4
aI0
aI0
aa(lp39
I11
aI10
aI0
aI0
aa(lp40
I15
aI14
aI0
aI0
aa(lp41
I13
aI12
aI0
aI0
aa(lp42
I21
aI20
aI0
aI2
aa(lp43
I16
aI16
aI0
aI0
aa(lp44
I15
aI14
aI0
aI0
aa(lp45
I17
aI16
aI0
aI2
aa(lp46
I26
aI25
aI0
aI0
aa(lp47
I17
aI16
aI0
aI0
aa(lp48
I13
aI12
aI0
aI0
aa(lp49
I15
aI18
aI0
aI0
aa(lp50
I15
aI14
aI0
aI0
aa(lp51
I13
aI12
aI0
aI0
aa(lp52
I15
aI14
aI0
aI0
aa(lp53
I15
aI14
aI0
aI2
aa(lp54
I20
aI19
aI0
aI0
aa(lp55
I23
aI22
aI0
aI0
aa(lp56
I9
aI8
aI0
aI2
aa(lp57
I9
aI8
aI0
aI2
aa(lp58
I21
aI20
aI0
aI0
aa(lp59
I13
aI12
aI0
aI0
aa(lp60
I13
aI12
aI0
aI0
aa(lp61
I9
aI8
aI0
aI0
aa(lp62
I9
aI8
aI0
aI0
aa(lp63
I13
aI12
aI0
aI0
aa(lp64
I9
aI8
aI0
aI0
aa(lp65
I7
aI6
aI0
aI0
aa(lp66
I12
aI12
aI0
aI0
aa(lp67
I9
aI8
aI0
aI0
aa(lp68
I15
aI14
aI0
aI0
aa(lp69
I11
aI11
aI0
aI0
aa(lp70
I19
aI19
aI0
aI0
aa(lp71
I9
aI8
aI0
aI0
aa(lp72
I17
aI16
aI0
aI0
aa(lp73
I15
aI14
aI0
aI0
aa(lp74
I11
aI10
aI0
aI0
aa(lp75
I11
aI10
aI0
aI0
aa(lp76
I11
aI11
aI0
aI0
aa(lp77
I19
aI18
aI0
aI0
aa(lp78
I14
aI13
aI0
aI0
aa(lp79
I7
aI6
aI0
aI0
aa(lp80
I3
aI2
aI0
aI0
aa(lp81
I3
aI2
aI0
aI0
aa(lp82
I15
aI14
aI0
aI0
aa(lp83
I15
aI14
aI0
aI0
aa(lp84
I17
aI16
aI0
aI0
aa(lp85
I13
aI12
aI0
aI0
aa(lp86
I13
aI12
aI0
aI0
aa(lp87
I9
aI8
aI0
aI0
aa(lp88
I16
aI16
aI0
aI4
aa(lp89
I11
aI10
aI0
aI0
aa(lp90
I13
aI12
aI0
aI0
aa(lp91
I5
aI4
aI0
aI0
aa(lp92
I21
aI21
aI0
aI0
aa(lp93
I11
aI10
aI0
aI0
aa(lp94
I9
aI8
aI0
aI0
aa(lp95
I7
aI6
aI0
aI0
aa(lp96
I15
aI14
aI0
aI0
aa(lp97
I11
aI10
aI0
aI0
aa.