(lp1
(lp2
I13
aI12
aI0
aI0
aa(lp3
I11
aI10
aI0
aI2
aa(lp4
I15
aI14
aI0
aI0
aa(lp5
I14
aI12
aI0
aI0
aa(lp6
I15
aI14
aI0
aI2
aa(lp7
I11
aI10
aI0
aI0
aa(lp8
I15
aI14
aI0
aI0
aa(lp9
I14
aI13
aI0
aI0
aa(lp10
I17
aI16
aI0
aI0
aa(lp11
I7
aI6
aI0
aI0
aa(lp12
I9
aI8
aI0
aI0
aa(lp13
I11
aI10
aI0
aI0
aa(lp14
I15
aI14
aI0
aI0
aa(lp15
I11
aI10
aI0
aI0
aa(lp16
I11
aI10
aI0
aI0
aa(lp17
I10
aI8
aI0
aI2
aa(lp18
I11
aI10
aI0
aI0
aa(lp19
I13
aI12
aI0
aI0
aa(lp20
I14
aI15
aI0
aI0
aa(lp21
I15
aI14
aI0
aI0
aa(lp22
I3
aI2
aI0
aI0
aa(lp23
I19
aI18
aI0
aI0
aa(lp24
I15
aI14
aI0
aI0
aa(lp25
I13
aI12
aI0
aI0
aa(lp26
I15
aI14
aI0
aI0
aa(lp27
I24
aI23
aI0
aI0
aa(lp28
I18
aI21
aI0
aI0
aa(lp29
I9
aI8
aI0
aI0
aa(lp30
I11
aI10
aI0
aI0
aa(lp31
I22
aI21
aI0
aI0
aa(lp32
I9
aI8
aI0
aI0
aa(lp33
I17
aI16
aI0
aI0
aa(lp34
I18
aI17
aI0
aI0
aa(lp35
I9
aI8
aI0
aI0
aa(lp36
I13
aI12
aI0
aI0
aa(lp37
I19
aI20
aI0
aI0
aa(lp38
I11
aI10
aI0
aI0
aa(lp39
I13
aI12
aI0
aI0
aa(lp40
I13
aI12
aI0
aI0
aa(lp41
I15
aI14
aI0
aI0
aa(lp42
I11
aI10
aI0
aI0
aa(lp43
I15
aI13
aI0
aI0
aa(lp44
I13
aI12
aI0
aI0
aa(lp45
I13
aI12
aI0
aI0
aa(lp46
I11
aI10
aI0
aI0
aa(lp47
I5
aI4
aI0
aI0
aa(lp48
I23
aI22
aI0
aI0
aa(lp49
I9
aI8
aI0
aI0
aa(lp50
I0
aI0
aI0
aI0
aa(lp51
I5
aI4
aI0
aI0
aa(lp52
I11
aI10
aI0
aI0
aa(lp53
I9
aI8
aI0
aI0
aa(lp54
I14
aI13
aI0
aI0
aa(lp55
I9
aI8
aI0
aI0
aa(lp56
I11
aI10
aI0
aI0
aa(lp57
I13
aI12
aI0
aI0
aa(lp58
I15
aI14
aI0
aI0
aa(lp59
I11
aI10
aI0
aI0
aa(lp60
I11
aI10
aI0
aI0
aa(lp61
I10
aI9
aI0
aI0
aa(lp62
I10
aI9
aI0
aI0
aa(lp63
I13
aI12
aI0
aI0
aa(lp64
I15
aI14
aI0
aI0
aa(lp65
I13
aI12
aI0
aI0
aa(lp66
I11
aI10
aI0
aI0
aa(lp67
I13
aI12
aI0
aI0
aa(lp68
I9
aI8
aI0
aI0
aa(lp69
I9
aI8
aI0
aI0
aa(lp70
I11
aI10
aI0
aI0
aa(lp71
I17
aI16
aI0
aI0
aa(lp72
I11
aI10
aI0
aI0
aa(lp73
I14
aI13
aI0
aI0
aa(lp74
I11
aI10
aI0
aI0
aa(lp75
I5
aI4
aI0
aI0
aa(lp76
I11
aI10
aI0
aI0
aa(lp77
I13
aI12
aI0
aI0
aa(lp78
I13
aI12
aI0
aI0
aa(lp79
I11
aI10
aI0
aI0
aa(lp80
I9
aI8
aI0
aI0
aa(lp81
I17
aI16
aI0
aI0
aa(lp82
I9
aI8
aI0
aI0
aa(lp83
I15
aI14
aI0
aI0
aa(lp84
I9
aI8
aI0
aI0
aa(lp85
I7
aI6
aI0
aI0
aa(lp86
I5
aI4
aI0
aI0
aa(lp87
I13
aI12
aI0
aI0
aa(lp88
I5
aI4
aI0
aI0
aa(lp89
I5
aI4
aI0
aI0
aa(lp90
I15
aI14
aI0
aI0
aa(lp91
I9
aI8
aI0
aI0
aa(lp92
I9
aI8
aI0
aI0
aa(lp93
I9
aI8
aI0
aI0
aa.