(lp1
(lp2
I15
aI11
aI0
aI0
aa(lp3
I11
aI10
aI0
aI0
aa(lp4
I11
aI10
aI0
aI0
aa(lp5
I12
aI10
aI0
aI0
aa(lp6
I7
aI6
aI0
aI0
aa(lp7
I7
aI6
aI0
aI0
aa(lp8
I17
aI16
aI0
aI0
aa(lp9
I9
aI8
aI0
aI0
aa(lp10
I15
aI14
aI0
aI0
aa(lp11
I13
aI12
aI0
aI0
aa(lp12
I17
aI16
aI0
aI0
aa(lp13
I13
aI12
aI0
aI0
aa(lp14
I9
aI8
aI0
aI0
aa(lp15
I15
aI14
aI0
aI0
aa(lp16
I15
aI14
aI0
aI0
aa(lp17
I20
aI19
aI0
aI0
aa(lp18
I11
aI10
aI0
aI0
aa(lp19
I19
aI18
aI0
aI0
aa(lp20
I11
aI10
aI0
aI0
aa(lp21
I11
aI10
aI0
aI0
aa(lp22
I7
aI6
aI0
aI0
aa(lp23
I11
aI10
aI0
aI0
aa(lp24
I15
aI14
aI0
aI0
aa(lp25
I5
aI4
aI0
aI0
aa(lp26
I9
aI8
aI0
aI0
aa(lp27
I13
aI12
aI0
aI0
aa(lp28
I3
aI2
aI0
aI0
aa(lp29
I11
aI10
aI0
aI0
aa(lp30
I14
aI12
aI0
aI0
aa(lp31
I7
aI6
aI0
aI0
aa(lp32
I11
aI11
aI0
aI0
aa(lp33
I9
aI8
aI0
aI0
aa(lp34
I9
aI8
aI0
aI0
aa(lp35
I11
aI10
aI0
aI0
aa(lp36
I13
aI11
aI0
aI0
aa(lp37
I11
aI10
aI0
aI0
aa(lp38
I15
aI14
aI0
aI0
aa(lp39
I11
aI10
aI0
aI0
aa(lp40
I7
aI6
aI0
aI0
aa(lp41
I3
aI2
aI0
aI0
aa(lp42
I40
aI37
aI0
aI0
aa(lp43
I7
aI6
aI0
aI0
aa(lp44
I17
aI16
aI0
aI0
aa(lp45
I12
aI10
aI0
aI0
aa(lp46
I17
aI16
aI0
aI0
aa(lp47
I7
aI6
aI0
aI0
aa(lp48
I14
aI13
aI0
aI0
aa(lp49
I9
aI8
aI0
aI0
aa(lp50
I7
aI6
aI0
aI0
aa(lp51
I7
aI6
aI0
aI0
aa(lp52
I7
aI6
aI0
aI0
aa(lp53
I7
aI6
aI0
aI0
aa(lp54
I17
aI16
aI0
aI0
aa(lp55
I17
aI16
aI0
aI0
aa(lp56
I13
aI12
aI0
aI0
aa(lp57
I15
aI14
aI0
aI0
aa(lp58
I7
aI6
aI0
aI0
aa(lp59
I14
aI12
aI0
aI0
aa(lp60
I13
aI12
aI0
aI0
aa(lp61
I15
aI14
aI0
aI0
aa(lp62
I11
aI10
aI0
aI0
aa(lp63
I9
aI8
aI0
aI0
aa(lp64
I11
aI10
aI0
aI0
aa(lp65
I7
aI6
aI0
aI0
aa(lp66
I13
aI12
aI0
aI0
aa(lp67
I15
aI14
aI0
aI0
aa(lp68
I15
aI14
aI0
aI0
aa(lp69
I11
aI10
aI0
aI0
aa(lp70
I11
aI10
aI0
aI0
aa(lp71
I10
aI8
aI0
aI0
aa(lp72
I9
aI8
aI0
aI0
aa(lp73
I15
aI14
aI0
aI0
aa(lp74
I11
aI10
aI0
aI0
aa(lp75
I7
aI6
aI0
aI0
aa(lp76
I13
aI12
aI0
aI0
aa(lp77
I9
aI8
aI0
aI0
aa(lp78
I14
aI14
aI0
aI0
aa(lp79
I11
aI10
aI0
aI0
aa(lp80
I11
aI10
aI0
aI0
aa(lp81
I7
aI6
aI0
aI0
aa(lp82
I11
aI10
aI0
aI0
aa(lp83
I7
aI6
aI0
aI0
aa(lp84
I11
aI10
aI0
aI0
aa(lp85
I13
aI12
aI0
aI0
aa(lp86
I13
aI12
aI0
aI0
aa(lp87
I15
aI14
aI0
aI0
aa(lp88
I9
aI8
aI0
aI0
aa(lp89
I13
aI12
aI0
aI0
aa.