(lp1
(lp2
I17
aI16
aI0
aI0
aa(lp3
I13
aI12
aI0
aI2
aa(lp4
I17
aI18
aI0
aI0
aa(lp5
I13
aI12
aI0
aI0
aa(lp6
I12
aI12
aI0
aI0
aa(lp7
I15
aI14
aI0
aI0
aa(lp8
I7
aI6
aI0
aI0
aa(lp9
I22
aI21
aI0
aI0
aa(lp10
I13
aI12
aI0
aI0
aa(lp11
I7
aI6
aI0
aI0
aa(lp12
I7
aI6
aI0
aI0
aa(lp13
I13
aI12
aI0
aI0
aa(lp14
I13
aI12
aI0
aI0
aa(lp15
I19
aI18
aI0
aI2
aa(lp16
I19
aI18
aI0
aI0
aa(lp17
I18
aI17
aI0
aI2
aa(lp18
I11
aI10
aI0
aI0
aa(lp19
I17
aI16
aI0
aI0
aa(lp20
I11
aI10
aI0
aI0
aa(lp21
I17
aI17
aI0
aI0
aa(lp22
I17
aI16
aI0
aI0
aa(lp23
I17
aI16
aI0
aI0
aa(lp24
I13
aI12
aI0
aI0
aa(lp25
I15
aI14
aI0
aI0
aa(lp26
I13
aI12
aI0
aI0
aa(lp27
I13
aI12
aI0
aI0
aa(lp28
I15
aI14
aI0
aI0
aa(lp29
I18
aI17
aI0
aI0
aa(lp30
I15
aI14
aI0
aI0
aa(lp31
I15
aI14
aI0
aI0
aa(lp32
I15
aI14
aI0
aI0
aa(lp33
I19
aI18
aI0
aI0
aa(lp34
I17
aI16
aI0
aI0
aa(lp35
I3
aI2
aI0
aI0
aa(lp36
I15
aI14
aI0
aI0
aa(lp37
I15
aI14
aI0
aI0
aa(lp38
I7
aI6
aI0
aI0
aa(lp39
I16
aI15
aI0
aI0
aa(lp40
I13
aI12
aI0
aI0
aa(lp41
I13
aI12
aI0
aI0
aa(lp42
I13
aI12
aI0
aI0
aa(lp43
I14
aI14
aI0
aI0
aa(lp44
I16
aI16
aI0
aI0
aa(lp45
I17
aI16
aI0
aI0
aa(lp46
I7
aI6
aI0
aI0
aa(lp47
I17
aI16
aI0
aI0
aa(lp48
I13
aI12
aI0
aI0
aa(lp49
I13
aI12
aI0
aI0
aa(lp50
I19
aI18
aI0
aI0
aa(lp51
I15
aI14
aI0
aI0
aa(lp52
I12
aI11
aI0
aI0
aa(lp53
I15
aI14
aI0
aI0
aa(lp54
I17
aI16
aI0
aI0
aa(lp55
I16
aI15
aI0
aI0
aa(lp56
I13
aI12
aI0
aI0
aa(lp57
I13
aI12
aI0
aI0
aa(lp58
I13
aI12
aI0
aI0
aa(lp59
I11
aI10
aI0
aI0
aa(lp60
I15
aI14
aI0
aI2
aa(lp61
I13
aI12
aI0
aI0
aa(lp62
I11
aI10
aI0
aI0
aa(lp63
I17
aI16
aI0
aI0
aa(lp64
I7
aI6
aI0
aI0
aa(lp65
I0
aI0
aI0
aI0
aa(lp66
I20
aI20
aI0
aI2
aa(lp67
I13
aI12
aI0
aI0
aa(lp68
I11
aI10
aI0
aI0
aa(lp69
I7
aI6
aI0
aI2
aa(lp70
I11
aI10
aI0
aI0
aa(lp71
I15
aI14
aI0
aI0
aa(lp72
I15
aI14
aI0
aI2
aa(lp73
I13
aI12
aI0
aI0
aa(lp74
I17
aI16
aI0
aI2
aa(lp75
I11
aI10
aI0
aI0
aa(lp76
I7
aI6
aI0
aI0
aa(lp77
I7
aI6
aI0
aI0
aa(lp78
I12
aI11
aI0
aI0
aa(lp79
I9
aI8
aI0
aI0
aa(lp80
I13
aI12
aI0
aI0
aa(lp81
I3
aI2
aI0
aI0
aa(lp82
I19
aI18
aI0
aI0
aa(lp83
I19
aI17
aI0
aI2
aa(lp84
I17
aI16
aI0
aI0
aa(lp85
I13
aI12
aI0
aI0
aa(lp86
I5
aI4
aI0
aI0
aa(lp87
I19
aI18
aI0
aI2
aa(lp88
I13
aI12
aI0
aI0
aa(lp89
I17
aI16
aI0
aI0
aa.