(lp1
(lp2
I10
aI10
aI0
aI0
aa(lp3
I14
aI13
aI0
aI0
aa(lp4
I11
aI10
aI0
aI0
aa(lp5
I13
aI12
aI0
aI0
aa(lp6
I22
aI21
aI0
aI0
aa(lp7
I9
aI8
aI0
aI0
aa(lp8
I5
aI4
aI0
aI0
aa(lp9
I13
aI12
aI0
aI0
aa(lp10
I11
aI10
aI0
aI0
aa(lp11
I22
aI21
aI0
aI0
aa(lp12
I16
aI15
aI0
aI0
aa(lp13
I5
aI4
aI0
aI0
aa(lp14
I11
aI10
aI0
aI0
aa(lp15
I11
aI10
aI0
aI0
aa(lp16
I5
aI4
aI0
aI0
aa(lp17
I0
aI0
aI0
aI0
aa(lp18
I16
aI16
aI0
aI2
aa(lp19
I11
aI10
aI0
aI0
aa(lp20
I6
aI6
aI0
aI0
aa(lp21
I22
aI21
aI0
aI0
aa(lp22
I15
aI14
aI0
aI0
aa(lp23
I11
aI10
aI0
aI0
aa(lp24
I5
aI4
aI0
aI0
aa(lp25
I9
aI8
aI0
aI0
aa(lp26
I8
aI7
aI0
aI0
aa(lp27
I11
aI10
aI0
aI0
aa(lp28
I22
aI21
aI0
aI0
aa(lp29
I20
aI19
aI0
aI0
aa(lp30
I11
aI10
aI0
aI0
aa(lp31
I13
aI12
aI0
aI0
aa(lp32
I13
aI12
aI0
aI0
aa(lp33
I11
aI10
aI0
aI0
aa(lp34
I22
aI21
aI0
aI0
aa(lp35
I5
aI4
aI0
aI0
aa(lp36
I24
aI23
aI0
aI0
aa(lp37
I22
aI21
aI0
aI0
aa(lp38
I16
aI15
aI0
aI0
aa(lp39
I10
aI9
aI0
aI0
aa(lp40
I15
aI14
aI0
aI0
aa(lp41
I15
aI14
aI0
aI0
aa(lp42
I11
aI10
aI0
aI0
aa(lp43
I7
aI6
aI0
aI0
aa(lp44
I13
aI12
aI0
aI0
aa.