(lp1
(lp2
I9
aI8
aI0
aI0
aa(lp3
I16
aI15
aI0
aI0
aa(lp4
I9
aI8
aI0
aI0
aa(lp5
I9
aI8
aI0
aI0
aa(lp6
I7
aI6
aI0
aI0
aa(lp7
I9
aI8
aI0
aI0
aa(lp8
I9
aI8
aI0
aI0
aa(lp9
I13
aI12
aI0
aI4
aa(lp10
I13
aI12
aI0
aI0
aa(lp11
I11
aI10
aI0
aI0
aa(lp12
I11
aI10
aI0
aI2
aa(lp13
I11
aI10
aI0
aI0
aa(lp14
I11
aI10
aI0
aI0
aa(lp15
I9
aI8
aI0
aI0
aa(lp16
I11
aI10
aI0
aI0
aa(lp17
I11
aI10
aI0
aI0
aa(lp18
I11
aI10
aI0
aI0
aa(lp19
I11
aI10
aI0
aI0
aa(lp20
I11
aI10
aI0
aI0
aa(lp21
I9
aI8
aI0
aI0
aa(lp22
I11
aI10
aI0
aI0
aa(lp23
I11
aI10
aI0
aI0
aa(lp24
I9
aI8
aI0
aI0
aa(lp25
I12
aI11
aI0
aI0
aa(lp26
I9
aI8
aI0
aI0
aa(lp27
I9
aI8
aI0
aI0
aa(lp28
I9
aI8
aI0
aI0
aa(lp29
I10
aI10
aI0
aI0
aa(lp30
I11
aI10
aI0
aI0
aa(lp31
I11
aI10
aI0
aI0
aa(lp32
I11
aI10
aI0
aI0
aa(lp33
I9
aI8
aI0
aI0
aa(lp34
I9
aI8
aI0
aI0
aa(lp35
I7
aI6
aI0
aI0
aa(lp36
I11
aI10
aI0
aI0
aa(lp37
I11
aI10
aI0
aI0
aa(lp38
I9
aI8
aI0
aI0
aa(lp39
I13
aI12
aI0
aI0
aa(lp40
I11
aI10
aI0
aI0
aa(lp41
I9
aI8
aI0
aI0
aa(lp42
I7
aI6
aI0
aI0
aa(lp43
I11
aI10
aI0
aI0
aa(lp44
I13
aI12
aI0
aI0
aa(lp45
I13
aI12
aI0
aI0
aa(lp46
I13
aI12
aI0
aI0
aa(lp47
I11
aI10
aI0
aI0
aa(lp48
I13
aI12
aI0
aI0
aa(lp49
I7
aI6
aI0
aI0
aa(lp50
I7
aI6
aI0
aI0
aa(lp51
I7
aI6
aI0
aI0
aa(lp52
I7
aI6
aI0
aI0
aa(lp53
I7
aI6
aI0
aI0
aa(lp54
I12
aI11
aI0
aI0
aa(lp55
I0
aI0
aI0
aI0
aa(lp56
I13
aI12
aI0
aI0
aa(lp57
I5
aI4
aI0
aI0
aa(lp58
I13
aI12
aI0
aI0
aa(lp59
I11
aI10
aI0
aI0
aa(lp60
I11
aI10
aI0
aI0
aa(lp61
I7
aI6
aI0
aI0
aa(lp62
I11
aI10
aI0
aI0
aa(lp63
I7
aI6
aI0
aI0
aa(lp64
I11
aI10
aI0
aI0
aa(lp65
I11
aI10
aI0
aI0
aa(lp66
I11
aI10
aI0
aI0
aa(lp67
I11
aI10
aI0
aI0
aa(lp68
I13
aI12
aI0
aI0
aa(lp69
I14
aI13
aI0
aI0
aa(lp70
I11
aI10
aI0
aI0
aa(lp71
I9
aI8
aI0
aI0
aa(lp72
I13
aI12
aI0
aI0
aa(lp73
I9
aI8
aI0
aI0
aa(lp74
I13
aI12
aI0
aI0
aa(lp75
I11
aI10
aI0
aI0
aa(lp76
I11
aI10
aI0
aI0
aa(lp77
I11
aI10
aI0
aI0
aa(lp78
I15
aI14
aI0
aI0
aa(lp79
I15
aI14
aI0
aI0
aa(lp80
I9
aI8
aI0
aI0
aa(lp81
I17
aI16
aI0
aI0
aa(lp82
I13
aI12
aI0
aI0
aa(lp83
I15
aI14
aI0
aI0
aa(lp84
I11
aI10
aI0
aI0
aa(lp85
I8
aI8
aI0
aI0
aa(lp86
I13
aI12
aI0
aI0
aa(lp87
I14
aI13
aI0
aI0
aa(lp88
I11
aI10
aI0
aI0
aa(lp89
I5
aI4
aI0
aI0
aa(lp90
I15
aI14
aI0
aI0
aa(lp91
I13
aI12
aI0
aI0
aa(lp92
I9
aI8
aI0
aI0
aa(lp93
I11
aI10
aI0
aI2
aa(lp94
I13
aI12
aI0
aI0
aa(lp95
I7
aI6
aI0
aI0
aa(lp96
I11
aI10
aI0
aI0
aa(lp97
I11
aI10
aI0
aI0
aa(lp98
I11
aI10
aI0
aI0
aa(lp99
I9
aI8
aI0
aI0
aa(lp100
I16
aI15
aI0
aI0
aa(lp101
I13
aI12
aI0
aI0
aa.