(lp1
(lp2
I9
aI8
aI0
aI0
aa(lp3
I20
aI18
aI0
aI0
aa(lp4
I11
aI10
aI0
aI0
aa(lp5
I15
aI14
aI0
aI0
aa(lp6
I21
aI22
aI0
aI0
aa(lp7
I9
aI8
aI0
aI0
aa(lp8
I17
aI16
aI0
aI0
aa(lp9
I9
aI8
aI0
aI0
aa(lp10
I11
aI10
aI0
aI0
aa(lp11
I13
aI12
aI0
aI0
aa(lp12
I9
aI8
aI0
aI0
aa(lp13
I11
aI9
aI0
aI0
aa(lp14
I11
aI10
aI0
aI0
aa(lp15
I7
aI6
aI0
aI0
aa(lp16
I10
aI10
aI0
aI0
aa(lp17
I5
aI4
aI0
aI0
aa(lp18
I5
aI4
aI0
aI0
aa(lp19
I11
aI10
aI0
aI0
aa(lp20
I13
aI12
aI0
aI0
aa(lp21
I21
aI20
aI0
aI0
aa(lp22
I23
aI22
aI0
aI0
aa(lp23
I11
aI10
aI0
aI0
aa(lp24
I9
aI7
aI0
aI0
aa(lp25
I7
aI6
aI0
aI0
aa(lp26
I5
aI4
aI0
aI0
aa(lp27
I5
aI4
aI0
aI0
aa(lp28
I7
aI6
aI0
aI0
aa(lp29
I7
aI6
aI0
aI0
aa(lp30
I11
aI10
aI0
aI0
aa(lp31
I15
aI14
aI0
aI0
aa(lp32
I17
aI16
aI0
aI0
aa(lp33
I7
aI6
aI0
aI0
aa(lp34
I19
aI18
aI0
aI0
aa(lp35
I7
aI6
aI0
aI0
aa(lp36
I7
aI6
aI0
aI0
aa(lp37
I7
aI6
aI0
aI0
aa(lp38
I7
aI6
aI0
aI0
aa(lp39
I5
aI4
aI0
aI0
aa(lp40
I18
aI17
aI0
aI0
aa(lp41
I20
aI19
aI0
aI0
aa(lp42
I15
aI14
aI0
aI0
aa(lp43
I15
aI14
aI0
aI0
aa(lp44
I17
aI16
aI0
aI0
aa(lp45
I9
aI8
aI0
aI0
aa(lp46
I11
aI10
aI0
aI0
aa(lp47
I7
aI6
aI0
aI0
aa(lp48
I9
aI8
aI0
aI0
aa(lp49
I7
aI6
aI0
aI0
aa(lp50
I15
aI14
aI0
aI0
aa(lp51
I24
aI23
aI0
aI0
aa(lp52
I14
aI13
aI0
aI0
aa(lp53
I9
aI8
aI0
aI0
aa(lp54
I11
aI10
aI0
aI0
aa(lp55
I19
aI18
aI0
aI0
aa(lp56
I14
aI13
aI0
aI0
aa(lp57
I5
aI4
aI0
aI0
aa(lp58
I11
aI10
aI0
aI0
aa(lp59
I13
aI12
aI0
aI0
aa(lp60
I9
aI8
aI0
aI0
aa(lp61
I21
aI20
aI0
aI0
aa(lp62
I15
aI15
aI0
aI0
aa(lp63
I15
aI14
aI0
aI0
aa(lp64
I13
aI12
aI0
aI0
aa(lp65
I15
aI14
aI0
aI0
aa(lp66
I7
aI6
aI0
aI0
aa(lp67
I15
aI14
aI0
aI0
aa(lp68
I16
aI14
aI0
aI0
aa(lp69
I9
aI8
aI0
aI0
aa(lp70
I14
aI13
aI0
aI0
aa(lp71
I19
aI18
aI0
aI0
aa(lp72
I11
aI11
aI0
aI0
aa(lp73
I12
aI9
aI0
aI0
aa(lp74
I16
aI15
aI0
aI0
aa(lp75
I18
aI17
aI0
aI0
aa(lp76
I17
aI16
aI0
aI0
aa(lp77
I11
aI10
aI0
aI0
aa(lp78
I15
aI14
aI0
aI0
aa(lp79
I17
aI16
aI0
aI0
aa(lp80
I12
aI10
aI0
aI0
aa(lp81
I3
aI2
aI0
aI0
aa(lp82
I10
aI8
aI0
aI0
aa(lp83
I13
aI12
aI0
aI0
aa(lp84
I7
aI6
aI0
aI0
aa(lp85
I14
aI13
aI0
aI0
aa(lp86
I11
aI10
aI0
aI0
aa.