(lp1
(lp2
I9
aI8
aI0
aI0
aa(lp3
I15
aI14
aI0
aI0
aa(lp4
I17
aI16
aI0
aI2
aa(lp5
I17
aI16
aI0
aI2
aa(lp6
I7
aI6
aI0
aI0
aa(lp7
I15
aI14
aI0
aI0
aa(lp8
I15
aI14
aI0
aI0
aa(lp9
I9
aI8
aI0
aI2
aa(lp10
I7
aI6
aI0
aI0
aa(lp11
I11
aI10
aI0
aI0
aa(lp12
I16
aI15
aI0
aI0
aa(lp13
I9
aI8
aI0
aI0
aa(lp14
I17
aI16
aI0
aI0
aa(lp15
I15
aI14
aI0
aI0
aa(lp16
I11
aI10
aI0
aI0
aa(lp17
I11
aI10
aI0
aI0
aa(lp18
I15
aI14
aI0
aI0
aa(lp19
I10
aI10
aI0
aI0
aa(lp20
I13
aI12
aI0
aI0
aa(lp21
I7
aI6
aI0
aI0
aa(lp22
I9
aI8
aI0
aI0
aa(lp23
I19
aI18
aI0
aI2
aa(lp24
I11
aI10
aI0
aI0
aa(lp25
I13
aI12
aI0
aI0
aa(lp26
I13
aI12
aI0
aI0
aa(lp27
I10
aI10
aI0
aI0
aa(lp28
I7
aI6
aI0
aI0
aa(lp29
I13
aI12
aI0
aI0
aa(lp30
I7
aI6
aI0
aI0
aa(lp31
I12
aI11
aI0
aI0
aa(lp32
I21
aI20
aI0
aI0
aa(lp33
I13
aI12
aI0
aI0
aa(lp34
I5
aI4
aI0
aI0
aa(lp35
I12
aI11
aI0
aI0
aa(lp36
I11
aI10
aI0
aI2
aa(lp37
I13
aI12
aI0
aI0
aa(lp38
I3
aI2
aI0
aI0
aa(lp39
I0
aI0
aI0
aI0
aa(lp40
I12
aI11
aI0
aI0
aa(lp41
I7
aI6
aI0
aI0
aa(lp42
I15
aI14
aI0
aI0
aa(lp43
I17
aI18
aI0
aI0
aa(lp44
I17
aI16
aI0
aI2
aa(lp45
I7
aI6
aI0
aI0
aa(lp46
I7
aI6
aI0
aI0
aa(lp47
I9
aI8
aI0
aI0
aa(lp48
I3
aI2
aI0
aI0
aa(lp49
I13
aI12
aI0
aI0
aa(lp50
I10
aI9
aI0
aI0
aa(lp51
I9
aI8
aI0
aI0
aa(lp52
I19
aI18
aI0
aI0
aa(lp53
I5
aI4
aI0
aI0
aa(lp54
I12
aI12
aI0
aI0
aa(lp55
I12
aI12
aI0
aI0
aa(lp56
I13
aI12
aI0
aI0
aa(lp57
I19
aI18
aI0
aI0
aa(lp58
I3
aI2
aI0
aI0
aa(lp59
I3
aI2
aI0
aI0
aa(lp60
I9
aI8
aI0
aI0
aa(lp61
I9
aI8
aI0
aI0
aa(lp62
I5
aI4
aI0
aI0
aa(lp63
I9
aI8
aI0
aI0
aa(lp64
I11
aI10
aI0
aI0
aa(lp65
I7
aI6
aI0
aI0
aa(lp66
I9
aI8
aI0
aI0
aa(lp67
I13
aI12
aI0
aI0
aa(lp68
I5
aI4
aI0
aI0
aa(lp69
I10
aI9
aI0
aI0
aa(lp70
I17
aI16
aI0
aI0
aa(lp71
I9
aI8
aI0
aI0
aa.